GAS LISTING C:\Users\casanovg\AppData\Local\Temp\ccAecxKz.s 			page 1


   1               		.file	"nb-usitwisl-if2.c"
   2               	__SP_H__ = 0x3e
   3               	__SP_L__ = 0x3d
   4               	__SREG__ = 0x3f
   5               	__tmp_reg__ = 0
   6               	__zero_reg__ = 1
   7               		.text
   8               	.Ltext0:
   9               		.cfi_sections	.debug_frame
  10               		.section	.text.UsiTwiSlaveInit,"ax",@progbits
  11               	.global	UsiTwiSlaveInit
  12               		.type	UsiTwiSlaveInit, @function
  13               	UsiTwiSlaveInit:
  14               	.LVL0:
  15               	.LFB1:
  16               		.file 1 "nicebots-libs/twis/6-GC-if-2/nb-usitwisl-if2.c"
   1:nicebots-libs/twis/6-GC-if-2/nb-usitwisl-if2.c **** /*
   2:nicebots-libs/twis/6-GC-if-2/nb-usitwisl-if2.c ****  *  Timonel USI TWI Driver (Interrupt-Free)  
   3:nicebots-libs/twis/6-GC-if-2/nb-usitwisl-if2.c ****  *  ..................................................
   4:nicebots-libs/twis/6-GC-if-2/nb-usitwisl-if2.c ****  *  Based on USITWISlave by Donald Blake
   5:nicebots-libs/twis/6-GC-if-2/nb-usitwisl-if2.c ****  *  donblake at worldnet.att.net
   6:nicebots-libs/twis/6-GC-if-2/nb-usitwisl-if2.c ****  *  .................................................. 
   7:nicebots-libs/twis/6-GC-if-2/nb-usitwisl-if2.c ****  *  Adapted by Gustavo Casanova to work interrupt-free
   8:nicebots-libs/twis/6-GC-if-2/nb-usitwisl-if2.c ****  *  2018-07-15 gustavo.casanova@nicebots.com
   9:nicebots-libs/twis/6-GC-if-2/nb-usitwisl-if2.c ****  */
  10:nicebots-libs/twis/6-GC-if-2/nb-usitwisl-if2.c **** 
  11:nicebots-libs/twis/6-GC-if-2/nb-usitwisl-if2.c **** // Includes
  12:nicebots-libs/twis/6-GC-if-2/nb-usitwisl-if2.c **** #include "nb-usitwisl-if2.h"
  13:nicebots-libs/twis/6-GC-if-2/nb-usitwisl-if2.c **** 
  14:nicebots-libs/twis/6-GC-if-2/nb-usitwisl-if2.c **** // Device Dependent Defines
  15:nicebots-libs/twis/6-GC-if-2/nb-usitwisl-if2.c **** #if defined(__AVR_ATtiny25__) | \
  16:nicebots-libs/twis/6-GC-if-2/nb-usitwisl-if2.c ****     defined(__AVR_ATtiny45__) | \
  17:nicebots-libs/twis/6-GC-if-2/nb-usitwisl-if2.c ****     defined(__AVR_ATtiny85__)
  18:nicebots-libs/twis/6-GC-if-2/nb-usitwisl-if2.c **** #define DDR_USI DDRB
  19:nicebots-libs/twis/6-GC-if-2/nb-usitwisl-if2.c **** #define PORT_USI PORTB
  20:nicebots-libs/twis/6-GC-if-2/nb-usitwisl-if2.c **** #define PIN_USI PINB
  21:nicebots-libs/twis/6-GC-if-2/nb-usitwisl-if2.c **** #define PORT_USI_SDA PB0
  22:nicebots-libs/twis/6-GC-if-2/nb-usitwisl-if2.c **** #define PORT_USI_SCL PB2
  23:nicebots-libs/twis/6-GC-if-2/nb-usitwisl-if2.c **** #define PIN_USI_SDA PINB0
  24:nicebots-libs/twis/6-GC-if-2/nb-usitwisl-if2.c **** #define PIN_USI_SCL PINB2
  25:nicebots-libs/twis/6-GC-if-2/nb-usitwisl-if2.c **** #define USI_START_COND_INT USISIF
  26:nicebots-libs/twis/6-GC-if-2/nb-usitwisl-if2.c **** #define USI_START_VECTOR USI_START_vect
  27:nicebots-libs/twis/6-GC-if-2/nb-usitwisl-if2.c **** #define USI_OVERFLOW_VECTOR USI_OVF_vect
  28:nicebots-libs/twis/6-GC-if-2/nb-usitwisl-if2.c **** #endif
  29:nicebots-libs/twis/6-GC-if-2/nb-usitwisl-if2.c **** 
  30:nicebots-libs/twis/6-GC-if-2/nb-usitwisl-if2.c **** #if defined(__AVR_ATtiny2313__)
  31:nicebots-libs/twis/6-GC-if-2/nb-usitwisl-if2.c **** #define DDR_USI DDRB
  32:nicebots-libs/twis/6-GC-if-2/nb-usitwisl-if2.c **** #define PORT_USI PORTB
  33:nicebots-libs/twis/6-GC-if-2/nb-usitwisl-if2.c **** #define PIN_USI PINB
  34:nicebots-libs/twis/6-GC-if-2/nb-usitwisl-if2.c **** #define PORT_USI_SDA PB5
  35:nicebots-libs/twis/6-GC-if-2/nb-usitwisl-if2.c **** #define PORT_USI_SCL PB7
  36:nicebots-libs/twis/6-GC-if-2/nb-usitwisl-if2.c **** #define PIN_USI_SDA PINB5
  37:nicebots-libs/twis/6-GC-if-2/nb-usitwisl-if2.c **** #define PIN_USI_SCL PINB7
  38:nicebots-libs/twis/6-GC-if-2/nb-usitwisl-if2.c **** #define USI_START_COND_INT USISIF
  39:nicebots-libs/twis/6-GC-if-2/nb-usitwisl-if2.c **** #define USI_START_VECTOR USI_START_vect
  40:nicebots-libs/twis/6-GC-if-2/nb-usitwisl-if2.c **** #define USI_OVERFLOW_VECTOR USI_OVERFLOW_vect
  41:nicebots-libs/twis/6-GC-if-2/nb-usitwisl-if2.c **** #endif
GAS LISTING C:\Users\casanovg\AppData\Local\Temp\ccAecxKz.s 			page 2


  42:nicebots-libs/twis/6-GC-if-2/nb-usitwisl-if2.c **** 
  43:nicebots-libs/twis/6-GC-if-2/nb-usitwisl-if2.c **** #if defined(__AVR_ATtiny84__) | \
  44:nicebots-libs/twis/6-GC-if-2/nb-usitwisl-if2.c ****     defined(__AVR_ATtiny44__)
  45:nicebots-libs/twis/6-GC-if-2/nb-usitwisl-if2.c **** #define DDR_USI DDRA
  46:nicebots-libs/twis/6-GC-if-2/nb-usitwisl-if2.c **** #define PORT_USI PORTA
  47:nicebots-libs/twis/6-GC-if-2/nb-usitwisl-if2.c **** #define PIN_USI PINA
  48:nicebots-libs/twis/6-GC-if-2/nb-usitwisl-if2.c **** #define PORT_USI_SDA PORTA6
  49:nicebots-libs/twis/6-GC-if-2/nb-usitwisl-if2.c **** #define PORT_USI_SCL PORTA4
  50:nicebots-libs/twis/6-GC-if-2/nb-usitwisl-if2.c **** #define PIN_USI_SDA PINA6
  51:nicebots-libs/twis/6-GC-if-2/nb-usitwisl-if2.c **** #define PIN_USI_SCL PINA4
  52:nicebots-libs/twis/6-GC-if-2/nb-usitwisl-if2.c **** #define USI_START_COND_INT USISIF
  53:nicebots-libs/twis/6-GC-if-2/nb-usitwisl-if2.c **** #define USI_START_VECTOR USI_START_vect
  54:nicebots-libs/twis/6-GC-if-2/nb-usitwisl-if2.c **** #define USI_OVERFLOW_VECTOR USI_OVF_vect
  55:nicebots-libs/twis/6-GC-if-2/nb-usitwisl-if2.c **** #endif
  56:nicebots-libs/twis/6-GC-if-2/nb-usitwisl-if2.c **** 
  57:nicebots-libs/twis/6-GC-if-2/nb-usitwisl-if2.c **** #if defined(__AVR_ATtiny26__)
  58:nicebots-libs/twis/6-GC-if-2/nb-usitwisl-if2.c **** #define DDR_USI DDRB
  59:nicebots-libs/twis/6-GC-if-2/nb-usitwisl-if2.c **** #define PORT_USI PORTB
  60:nicebots-libs/twis/6-GC-if-2/nb-usitwisl-if2.c **** #define PIN_USI PINB
  61:nicebots-libs/twis/6-GC-if-2/nb-usitwisl-if2.c **** #define PORT_USI_SDA PB0
  62:nicebots-libs/twis/6-GC-if-2/nb-usitwisl-if2.c **** #define PORT_USI_SCL PB2
  63:nicebots-libs/twis/6-GC-if-2/nb-usitwisl-if2.c **** #define PIN_USI_SDA PINB0
  64:nicebots-libs/twis/6-GC-if-2/nb-usitwisl-if2.c **** #define PIN_USI_SCL PINB2
  65:nicebots-libs/twis/6-GC-if-2/nb-usitwisl-if2.c **** #define USI_START_COND_INT USISIF
  66:nicebots-libs/twis/6-GC-if-2/nb-usitwisl-if2.c **** #define USI_START_VECTOR USI_STRT_vect
  67:nicebots-libs/twis/6-GC-if-2/nb-usitwisl-if2.c **** #define USI_OVERFLOW_VECTOR USI_OVF_vect
  68:nicebots-libs/twis/6-GC-if-2/nb-usitwisl-if2.c **** #endif
  69:nicebots-libs/twis/6-GC-if-2/nb-usitwisl-if2.c **** 
  70:nicebots-libs/twis/6-GC-if-2/nb-usitwisl-if2.c **** #if defined(__AVR_ATtiny261__) | \
  71:nicebots-libs/twis/6-GC-if-2/nb-usitwisl-if2.c ****     defined(__AVR_ATtiny461__) | \
  72:nicebots-libs/twis/6-GC-if-2/nb-usitwisl-if2.c ****     defined(__AVR_ATtiny861__)
  73:nicebots-libs/twis/6-GC-if-2/nb-usitwisl-if2.c **** #define DDR_USI DDRB
  74:nicebots-libs/twis/6-GC-if-2/nb-usitwisl-if2.c **** #define PORT_USI PORTB
  75:nicebots-libs/twis/6-GC-if-2/nb-usitwisl-if2.c **** #define PIN_USI PINB
  76:nicebots-libs/twis/6-GC-if-2/nb-usitwisl-if2.c **** #define PORT_USI_SDA PB0
  77:nicebots-libs/twis/6-GC-if-2/nb-usitwisl-if2.c **** #define PORT_USI_SCL PB2
  78:nicebots-libs/twis/6-GC-if-2/nb-usitwisl-if2.c **** #define PIN_USI_SDA PINB0
  79:nicebots-libs/twis/6-GC-if-2/nb-usitwisl-if2.c **** #define PIN_USI_SCL PINB2
  80:nicebots-libs/twis/6-GC-if-2/nb-usitwisl-if2.c **** #define USI_START_COND_INT USISIF
  81:nicebots-libs/twis/6-GC-if-2/nb-usitwisl-if2.c **** #define USI_START_VECTOR USI_START_vect
  82:nicebots-libs/twis/6-GC-if-2/nb-usitwisl-if2.c **** #define USI_OVERFLOW_VECTOR USI_OVF_vect
  83:nicebots-libs/twis/6-GC-if-2/nb-usitwisl-if2.c **** #endif
  84:nicebots-libs/twis/6-GC-if-2/nb-usitwisl-if2.c **** 
  85:nicebots-libs/twis/6-GC-if-2/nb-usitwisl-if2.c **** #if defined(__AVR_ATmega165__) |  \
  86:nicebots-libs/twis/6-GC-if-2/nb-usitwisl-if2.c ****     defined(__AVR_ATmega325__) |  \
  87:nicebots-libs/twis/6-GC-if-2/nb-usitwisl-if2.c ****     defined(__AVR_ATmega3250__) | \
  88:nicebots-libs/twis/6-GC-if-2/nb-usitwisl-if2.c ****     defined(__AVR_ATmega645__) |  \
  89:nicebots-libs/twis/6-GC-if-2/nb-usitwisl-if2.c ****     defined(__AVR_ATmega6450__) | \
  90:nicebots-libs/twis/6-GC-if-2/nb-usitwisl-if2.c ****     defined(__AVR_ATmega329__) |  \
  91:nicebots-libs/twis/6-GC-if-2/nb-usitwisl-if2.c ****     defined(__AVR_ATmega3290__)
  92:nicebots-libs/twis/6-GC-if-2/nb-usitwisl-if2.c **** #define DDR_USI DDRE
  93:nicebots-libs/twis/6-GC-if-2/nb-usitwisl-if2.c **** #define PORT_USI PORTE
  94:nicebots-libs/twis/6-GC-if-2/nb-usitwisl-if2.c **** #define PIN_USI PINE
  95:nicebots-libs/twis/6-GC-if-2/nb-usitwisl-if2.c **** #define PORT_USI_SDA PE5
  96:nicebots-libs/twis/6-GC-if-2/nb-usitwisl-if2.c **** #define PORT_USI_SCL PE4
  97:nicebots-libs/twis/6-GC-if-2/nb-usitwisl-if2.c **** #define PIN_USI_SDA PINE5
  98:nicebots-libs/twis/6-GC-if-2/nb-usitwisl-if2.c **** #define PIN_USI_SCL PINE4
GAS LISTING C:\Users\casanovg\AppData\Local\Temp\ccAecxKz.s 			page 3


  99:nicebots-libs/twis/6-GC-if-2/nb-usitwisl-if2.c **** #define USI_START_COND_INT USISIF
 100:nicebots-libs/twis/6-GC-if-2/nb-usitwisl-if2.c **** #define USI_START_VECTOR USI_START_vect
 101:nicebots-libs/twis/6-GC-if-2/nb-usitwisl-if2.c **** #define USI_OVERFLOW_VECTOR USI_OVERFLOW_vect
 102:nicebots-libs/twis/6-GC-if-2/nb-usitwisl-if2.c **** #endif
 103:nicebots-libs/twis/6-GC-if-2/nb-usitwisl-if2.c **** 
 104:nicebots-libs/twis/6-GC-if-2/nb-usitwisl-if2.c **** #if defined(__AVR_ATmega169__)
 105:nicebots-libs/twis/6-GC-if-2/nb-usitwisl-if2.c **** #define DDR_USI DDRE
 106:nicebots-libs/twis/6-GC-if-2/nb-usitwisl-if2.c **** #define PORT_USI PORTE
 107:nicebots-libs/twis/6-GC-if-2/nb-usitwisl-if2.c **** #define PIN_USI PINE
 108:nicebots-libs/twis/6-GC-if-2/nb-usitwisl-if2.c **** #define PORT_USI_SDA PE5
 109:nicebots-libs/twis/6-GC-if-2/nb-usitwisl-if2.c **** #define PORT_USI_SCL PE4
 110:nicebots-libs/twis/6-GC-if-2/nb-usitwisl-if2.c **** #define PIN_USI_SDA PINE5
 111:nicebots-libs/twis/6-GC-if-2/nb-usitwisl-if2.c **** #define PIN_USI_SCL PINE4
 112:nicebots-libs/twis/6-GC-if-2/nb-usitwisl-if2.c **** #define USI_START_COND_INT USISIF
 113:nicebots-libs/twis/6-GC-if-2/nb-usitwisl-if2.c **** #define USI_START_VECTOR USI_START_vect
 114:nicebots-libs/twis/6-GC-if-2/nb-usitwisl-if2.c **** #define USI_OVERFLOW_VECTOR USI_OVERFLOW_vect
 115:nicebots-libs/twis/6-GC-if-2/nb-usitwisl-if2.c **** #endif
 116:nicebots-libs/twis/6-GC-if-2/nb-usitwisl-if2.c **** 
 117:nicebots-libs/twis/6-GC-if-2/nb-usitwisl-if2.c **** #if defined(__AVR_ATtiny167__)
 118:nicebots-libs/twis/6-GC-if-2/nb-usitwisl-if2.c **** #define DDR_USI DDRB
 119:nicebots-libs/twis/6-GC-if-2/nb-usitwisl-if2.c **** #define PORT_USI PORTB
 120:nicebots-libs/twis/6-GC-if-2/nb-usitwisl-if2.c **** #define PIN_USI PINB
 121:nicebots-libs/twis/6-GC-if-2/nb-usitwisl-if2.c **** #define PORT_USI_SDA PB0
 122:nicebots-libs/twis/6-GC-if-2/nb-usitwisl-if2.c **** #define PORT_USI_SCL PB2
 123:nicebots-libs/twis/6-GC-if-2/nb-usitwisl-if2.c **** #define PIN_USI_SDA PINB0
 124:nicebots-libs/twis/6-GC-if-2/nb-usitwisl-if2.c **** #define PIN_USI_SCL PINB2
 125:nicebots-libs/twis/6-GC-if-2/nb-usitwisl-if2.c **** #define USI_START_COND_INT USISIF
 126:nicebots-libs/twis/6-GC-if-2/nb-usitwisl-if2.c **** #define USI_START_VECTOR USI_START_vect
 127:nicebots-libs/twis/6-GC-if-2/nb-usitwisl-if2.c **** #define USI_OVERFLOW_VECTOR USI_OVERFLOW_vect
 128:nicebots-libs/twis/6-GC-if-2/nb-usitwisl-if2.c **** #endif
 129:nicebots-libs/twis/6-GC-if-2/nb-usitwisl-if2.c **** 
 130:nicebots-libs/twis/6-GC-if-2/nb-usitwisl-if2.c **** // SET_USI_TO_SEND_ACK Macro Function
 131:nicebots-libs/twis/6-GC-if-2/nb-usitwisl-if2.c **** #define SET_USI_TO_SEND_ACK( ) \
 132:nicebots-libs/twis/6-GC-if-2/nb-usitwisl-if2.c **** { \
 133:nicebots-libs/twis/6-GC-if-2/nb-usitwisl-if2.c ****   /* prepare ACK, ack is a zero */ \
 134:nicebots-libs/twis/6-GC-if-2/nb-usitwisl-if2.c ****   USIDR = 0; \
 135:nicebots-libs/twis/6-GC-if-2/nb-usitwisl-if2.c ****   /* set SDA as output */ \
 136:nicebots-libs/twis/6-GC-if-2/nb-usitwisl-if2.c ****   DDR_USI |= ( 1 << PORT_USI_SDA ); \
 137:nicebots-libs/twis/6-GC-if-2/nb-usitwisl-if2.c ****   /* clear all interrupt flags, except Start Cond */ \
 138:nicebots-libs/twis/6-GC-if-2/nb-usitwisl-if2.c ****   USISR = \
 139:nicebots-libs/twis/6-GC-if-2/nb-usitwisl-if2.c ****        ( 0 << USI_START_COND_INT ) | \
 140:nicebots-libs/twis/6-GC-if-2/nb-usitwisl-if2.c ****        ( 1 << USIOIF ) | \
 141:nicebots-libs/twis/6-GC-if-2/nb-usitwisl-if2.c ****        ( 1 << USIPF ) | \
 142:nicebots-libs/twis/6-GC-if-2/nb-usitwisl-if2.c ****        ( 1 << USIDC )| \
 143:nicebots-libs/twis/6-GC-if-2/nb-usitwisl-if2.c ****        /* set USI counter to shift 1 bit */ \
 144:nicebots-libs/twis/6-GC-if-2/nb-usitwisl-if2.c ****        ( 0x0E << USICNT0 ); \
 145:nicebots-libs/twis/6-GC-if-2/nb-usitwisl-if2.c **** }
 146:nicebots-libs/twis/6-GC-if-2/nb-usitwisl-if2.c **** 
 147:nicebots-libs/twis/6-GC-if-2/nb-usitwisl-if2.c **** // SET_USI_TO_READ_ACK Macro Function
 148:nicebots-libs/twis/6-GC-if-2/nb-usitwisl-if2.c **** #define SET_USI_TO_READ_ACK( ) \
 149:nicebots-libs/twis/6-GC-if-2/nb-usitwisl-if2.c **** { \
 150:nicebots-libs/twis/6-GC-if-2/nb-usitwisl-if2.c ****   /* set SDA as input */ \
 151:nicebots-libs/twis/6-GC-if-2/nb-usitwisl-if2.c ****   DDR_USI &= ~( 1 << PORT_USI_SDA ); \
 152:nicebots-libs/twis/6-GC-if-2/nb-usitwisl-if2.c ****   /* prepare ACK */ \
 153:nicebots-libs/twis/6-GC-if-2/nb-usitwisl-if2.c ****   USIDR = 0; \
 154:nicebots-libs/twis/6-GC-if-2/nb-usitwisl-if2.c ****   /* clear all interrupt flags, except Start Cond */ \
 155:nicebots-libs/twis/6-GC-if-2/nb-usitwisl-if2.c ****   USISR = \
GAS LISTING C:\Users\casanovg\AppData\Local\Temp\ccAecxKz.s 			page 4


 156:nicebots-libs/twis/6-GC-if-2/nb-usitwisl-if2.c ****        ( 0 << USI_START_COND_INT ) | \
 157:nicebots-libs/twis/6-GC-if-2/nb-usitwisl-if2.c ****        ( 1 << USIOIF ) | \
 158:nicebots-libs/twis/6-GC-if-2/nb-usitwisl-if2.c ****        ( 1 << USIPF ) | \
 159:nicebots-libs/twis/6-GC-if-2/nb-usitwisl-if2.c ****        ( 1 << USIDC ) | \
 160:nicebots-libs/twis/6-GC-if-2/nb-usitwisl-if2.c ****        /* set USI counter to shift 1 bit */ \
 161:nicebots-libs/twis/6-GC-if-2/nb-usitwisl-if2.c ****        ( 0x0E << USICNT0 ); \
 162:nicebots-libs/twis/6-GC-if-2/nb-usitwisl-if2.c **** }
 163:nicebots-libs/twis/6-GC-if-2/nb-usitwisl-if2.c **** 
 164:nicebots-libs/twis/6-GC-if-2/nb-usitwisl-if2.c **** // SET_USI_TO_TWI_START_CONDITION_MODE Macro Function
 165:nicebots-libs/twis/6-GC-if-2/nb-usitwisl-if2.c **** #define SET_USI_TO_TWI_START_CONDITION_MODE( ) \
 166:nicebots-libs/twis/6-GC-if-2/nb-usitwisl-if2.c **** { \
 167:nicebots-libs/twis/6-GC-if-2/nb-usitwisl-if2.c ****   USICR = \
 168:nicebots-libs/twis/6-GC-if-2/nb-usitwisl-if2.c ****        /* enable Start Condition Interrupt, disable Overflow Interrupt */ \
 169:nicebots-libs/twis/6-GC-if-2/nb-usitwisl-if2.c ****        ( 1 << USISIE ) | ( 0 << USIOIE ) | \
 170:nicebots-libs/twis/6-GC-if-2/nb-usitwisl-if2.c ****        /* set USI in Two-wire mode, no USI Counter overflow hold */ \
 171:nicebots-libs/twis/6-GC-if-2/nb-usitwisl-if2.c ****        ( 1 << USIWM1 ) | ( 0 << USIWM0 ) | \
 172:nicebots-libs/twis/6-GC-if-2/nb-usitwisl-if2.c ****        /* Shift Register Clock Source = External, positive edge */ \
 173:nicebots-libs/twis/6-GC-if-2/nb-usitwisl-if2.c ****        /* 4-Bit Counter Source = external, both edges */ \
 174:nicebots-libs/twis/6-GC-if-2/nb-usitwisl-if2.c ****        ( 1 << USICS1 ) | ( 0 << USICS0 ) | ( 0 << USICLK ) | \
 175:nicebots-libs/twis/6-GC-if-2/nb-usitwisl-if2.c ****        /* no toggle clock-port pin */ \
 176:nicebots-libs/twis/6-GC-if-2/nb-usitwisl-if2.c ****        ( 0 << USITC ); \
 177:nicebots-libs/twis/6-GC-if-2/nb-usitwisl-if2.c ****   USISR = \
 178:nicebots-libs/twis/6-GC-if-2/nb-usitwisl-if2.c ****         /* clear all interrupt flags, except Start Cond */ \
 179:nicebots-libs/twis/6-GC-if-2/nb-usitwisl-if2.c ****         ( 0 << USI_START_COND_INT ) | ( 1 << USIOIF ) | ( 1 << USIPF ) | \
 180:nicebots-libs/twis/6-GC-if-2/nb-usitwisl-if2.c ****         ( 1 << USIDC ) | ( 0x0 << USICNT0 ); \
 181:nicebots-libs/twis/6-GC-if-2/nb-usitwisl-if2.c **** }
 182:nicebots-libs/twis/6-GC-if-2/nb-usitwisl-if2.c **** 
 183:nicebots-libs/twis/6-GC-if-2/nb-usitwisl-if2.c **** // SET_USI_TO_SEND_DATA Macro Function
 184:nicebots-libs/twis/6-GC-if-2/nb-usitwisl-if2.c **** #define SET_USI_TO_SEND_DATA( ) \
 185:nicebots-libs/twis/6-GC-if-2/nb-usitwisl-if2.c **** { \
 186:nicebots-libs/twis/6-GC-if-2/nb-usitwisl-if2.c ****   /* set SDA as output */ \
 187:nicebots-libs/twis/6-GC-if-2/nb-usitwisl-if2.c ****   DDR_USI |=  ( 1 << PORT_USI_SDA ); \
 188:nicebots-libs/twis/6-GC-if-2/nb-usitwisl-if2.c ****   /* clear all interrupt flags, except Start Cond */ \
 189:nicebots-libs/twis/6-GC-if-2/nb-usitwisl-if2.c ****   USISR    =  \
 190:nicebots-libs/twis/6-GC-if-2/nb-usitwisl-if2.c ****        ( 0 << USI_START_COND_INT ) | ( 1 << USIOIF ) | ( 1 << USIPF ) | \
 191:nicebots-libs/twis/6-GC-if-2/nb-usitwisl-if2.c ****        ( 1 << USIDC) | \
 192:nicebots-libs/twis/6-GC-if-2/nb-usitwisl-if2.c ****        /* set USI to shift out 8 bits */ \
 193:nicebots-libs/twis/6-GC-if-2/nb-usitwisl-if2.c ****        ( 0x0 << USICNT0 ); \
 194:nicebots-libs/twis/6-GC-if-2/nb-usitwisl-if2.c **** }
 195:nicebots-libs/twis/6-GC-if-2/nb-usitwisl-if2.c **** 
 196:nicebots-libs/twis/6-GC-if-2/nb-usitwisl-if2.c **** // SET_USI_TO_READ_DATA Macro Function
 197:nicebots-libs/twis/6-GC-if-2/nb-usitwisl-if2.c **** #define SET_USI_TO_READ_DATA( ) \
 198:nicebots-libs/twis/6-GC-if-2/nb-usitwisl-if2.c **** { \
 199:nicebots-libs/twis/6-GC-if-2/nb-usitwisl-if2.c ****   /* set SDA as input */ \
 200:nicebots-libs/twis/6-GC-if-2/nb-usitwisl-if2.c ****   DDR_USI &= ~( 1 << PORT_USI_SDA ); \
 201:nicebots-libs/twis/6-GC-if-2/nb-usitwisl-if2.c ****   /* clear all interrupt flags, except Start Cond */ \
 202:nicebots-libs/twis/6-GC-if-2/nb-usitwisl-if2.c ****   USISR    = \
 203:nicebots-libs/twis/6-GC-if-2/nb-usitwisl-if2.c ****        ( 0 << USI_START_COND_INT ) | ( 1 << USIOIF ) | \
 204:nicebots-libs/twis/6-GC-if-2/nb-usitwisl-if2.c ****        ( 1 << USIPF ) | ( 1 << USIDC ) | \
 205:nicebots-libs/twis/6-GC-if-2/nb-usitwisl-if2.c ****        /* set USI to shift out 8 bits */ \
 206:nicebots-libs/twis/6-GC-if-2/nb-usitwisl-if2.c ****        ( 0x0 << USICNT0 ); \
 207:nicebots-libs/twis/6-GC-if-2/nb-usitwisl-if2.c **** }
 208:nicebots-libs/twis/6-GC-if-2/nb-usitwisl-if2.c **** 
 209:nicebots-libs/twis/6-GC-if-2/nb-usitwisl-if2.c **** // USI_RECEIVE_CALLBACK Macro Function
 210:nicebots-libs/twis/6-GC-if-2/nb-usitwisl-if2.c **** #define USI_RECEIVE_CALLBACK() \
 211:nicebots-libs/twis/6-GC-if-2/nb-usitwisl-if2.c **** { \
 212:nicebots-libs/twis/6-GC-if-2/nb-usitwisl-if2.c ****     if (Usi_onReceivePtr) \
GAS LISTING C:\Users\casanovg\AppData\Local\Temp\ccAecxKz.s 			page 5


 213:nicebots-libs/twis/6-GC-if-2/nb-usitwisl-if2.c ****     { \
 214:nicebots-libs/twis/6-GC-if-2/nb-usitwisl-if2.c ****         if (UsiTwiAmountDataInReceiveBuffer()) \
 215:nicebots-libs/twis/6-GC-if-2/nb-usitwisl-if2.c ****         { \
 216:nicebots-libs/twis/6-GC-if-2/nb-usitwisl-if2.c ****             Usi_onReceivePtr(UsiTwiAmountDataInReceiveBuffer()); \
 217:nicebots-libs/twis/6-GC-if-2/nb-usitwisl-if2.c ****         } \
 218:nicebots-libs/twis/6-GC-if-2/nb-usitwisl-if2.c ****     } \
 219:nicebots-libs/twis/6-GC-if-2/nb-usitwisl-if2.c **** }
 220:nicebots-libs/twis/6-GC-if-2/nb-usitwisl-if2.c **** 
 221:nicebots-libs/twis/6-GC-if-2/nb-usitwisl-if2.c **** // ONSTOP_USI_RECEIVE_CALLBACK Macro Function
 222:nicebots-libs/twis/6-GC-if-2/nb-usitwisl-if2.c **** #define ONSTOP_USI_RECEIVE_CALLBACK() \
 223:nicebots-libs/twis/6-GC-if-2/nb-usitwisl-if2.c ****     {                                 \
 224:nicebots-libs/twis/6-GC-if-2/nb-usitwisl-if2.c ****         if (USISR & (1 << USIPF)) {   \
 225:nicebots-libs/twis/6-GC-if-2/nb-usitwisl-if2.c ****             USI_RECEIVE_CALLBACK();   \
 226:nicebots-libs/twis/6-GC-if-2/nb-usitwisl-if2.c ****         }                             \
 227:nicebots-libs/twis/6-GC-if-2/nb-usitwisl-if2.c ****     }
 228:nicebots-libs/twis/6-GC-if-2/nb-usitwisl-if2.c **** 
 229:nicebots-libs/twis/6-GC-if-2/nb-usitwisl-if2.c **** // USI_REQUEST_CALLBACK Macro Function
 230:nicebots-libs/twis/6-GC-if-2/nb-usitwisl-if2.c **** #define USI_REQUEST_CALLBACK()  \
 231:nicebots-libs/twis/6-GC-if-2/nb-usitwisl-if2.c **** {                               \
 232:nicebots-libs/twis/6-GC-if-2/nb-usitwisl-if2.c ****     USI_RECEIVE_CALLBACK();     \
 233:nicebots-libs/twis/6-GC-if-2/nb-usitwisl-if2.c ****     if(Usi_onRequestPtr) {      \
 234:nicebots-libs/twis/6-GC-if-2/nb-usitwisl-if2.c ****         Usi_onRequestPtr();     \
 235:nicebots-libs/twis/6-GC-if-2/nb-usitwisl-if2.c ****     }                           \
 236:nicebots-libs/twis/6-GC-if-2/nb-usitwisl-if2.c **** }    
 237:nicebots-libs/twis/6-GC-if-2/nb-usitwisl-if2.c **** 
 238:nicebots-libs/twis/6-GC-if-2/nb-usitwisl-if2.c **** // Data Type definitions
 239:nicebots-libs/twis/6-GC-if-2/nb-usitwisl-if2.c **** typedef enum {
 240:nicebots-libs/twis/6-GC-if-2/nb-usitwisl-if2.c ****     USI_SLAVE_CHECK_ADDRESS = 0x00,
 241:nicebots-libs/twis/6-GC-if-2/nb-usitwisl-if2.c ****     USI_SLAVE_SEND_DATA = 0x01,
 242:nicebots-libs/twis/6-GC-if-2/nb-usitwisl-if2.c ****     USI_SLAVE_REQUEST_REPLY_FROM_SEND_DATA = 0x02,
 243:nicebots-libs/twis/6-GC-if-2/nb-usitwisl-if2.c ****     USI_SLAVE_CHECK_REPLY_FROM_SEND_DATA = 0x03,
 244:nicebots-libs/twis/6-GC-if-2/nb-usitwisl-if2.c ****     USI_SLAVE_REQUEST_DATA = 0x04,
 245:nicebots-libs/twis/6-GC-if-2/nb-usitwisl-if2.c ****     USI_SLAVE_GET_DATA_AND_SEND_ACK = 0x05
 246:nicebots-libs/twis/6-GC-if-2/nb-usitwisl-if2.c **** } overflowState_t;
 247:nicebots-libs/twis/6-GC-if-2/nb-usitwisl-if2.c **** 
 248:nicebots-libs/twis/6-GC-if-2/nb-usitwisl-if2.c **** // Local variables
 249:nicebots-libs/twis/6-GC-if-2/nb-usitwisl-if2.c **** static uint8_t slaveAddress;
 250:nicebots-libs/twis/6-GC-if-2/nb-usitwisl-if2.c **** static volatile overflowState_t overflowState;
 251:nicebots-libs/twis/6-GC-if-2/nb-usitwisl-if2.c **** 
 252:nicebots-libs/twis/6-GC-if-2/nb-usitwisl-if2.c **** static uint8_t rxBuf[TWI_RX_BUFFER_SIZE];
 253:nicebots-libs/twis/6-GC-if-2/nb-usitwisl-if2.c **** static volatile uint8_t rxHead;
 254:nicebots-libs/twis/6-GC-if-2/nb-usitwisl-if2.c **** static volatile uint8_t rxTail;
 255:nicebots-libs/twis/6-GC-if-2/nb-usitwisl-if2.c **** static volatile uint8_t rxCount;
 256:nicebots-libs/twis/6-GC-if-2/nb-usitwisl-if2.c **** 
 257:nicebots-libs/twis/6-GC-if-2/nb-usitwisl-if2.c **** static uint8_t txBuf[TWI_TX_BUFFER_SIZE];
 258:nicebots-libs/twis/6-GC-if-2/nb-usitwisl-if2.c **** static volatile uint8_t txHead;
 259:nicebots-libs/twis/6-GC-if-2/nb-usitwisl-if2.c **** static volatile uint8_t txTail;
 260:nicebots-libs/twis/6-GC-if-2/nb-usitwisl-if2.c **** static volatile uint8_t txCount;
 261:nicebots-libs/twis/6-GC-if-2/nb-usitwisl-if2.c **** 
 262:nicebots-libs/twis/6-GC-if-2/nb-usitwisl-if2.c **** // Function FlushTwiBuffers
 263:nicebots-libs/twis/6-GC-if-2/nb-usitwisl-if2.c **** static void FlushTwiBuffers(void) {
 264:nicebots-libs/twis/6-GC-if-2/nb-usitwisl-if2.c ****     rxTail = 0;
 265:nicebots-libs/twis/6-GC-if-2/nb-usitwisl-if2.c ****     rxHead = 0;
 266:nicebots-libs/twis/6-GC-if-2/nb-usitwisl-if2.c ****     rxCount = 0;
 267:nicebots-libs/twis/6-GC-if-2/nb-usitwisl-if2.c ****     txTail = 0;
 268:nicebots-libs/twis/6-GC-if-2/nb-usitwisl-if2.c ****     txHead = 0;
 269:nicebots-libs/twis/6-GC-if-2/nb-usitwisl-if2.c ****     txCount = 0;
GAS LISTING C:\Users\casanovg\AppData\Local\Temp\ccAecxKz.s 			page 6


 270:nicebots-libs/twis/6-GC-if-2/nb-usitwisl-if2.c **** }
 271:nicebots-libs/twis/6-GC-if-2/nb-usitwisl-if2.c **** 
 272:nicebots-libs/twis/6-GC-if-2/nb-usitwisl-if2.c **** // Initialize USI for TWI slave mode
 273:nicebots-libs/twis/6-GC-if-2/nb-usitwisl-if2.c **** 
 274:nicebots-libs/twis/6-GC-if-2/nb-usitwisl-if2.c **** // Function UsiTwiSlaveInit
 275:nicebots-libs/twis/6-GC-if-2/nb-usitwisl-if2.c **** void UsiTwiSlaveInit(uint8_t ownAddress) {
  17               		.loc 1 275 42 view -0
  18               		.cfi_startproc
  19               	/* prologue: function */
  20               	/* frame size = 0 */
  21               	/* stack size = 0 */
  22               	.L__stack_usage = 0
 276:nicebots-libs/twis/6-GC-if-2/nb-usitwisl-if2.c ****     FlushTwiBuffers();
  23               		.loc 1 276 5 view .LVU1
  24               	.LBB4:
  25               	.LBI4:
 263:nicebots-libs/twis/6-GC-if-2/nb-usitwisl-if2.c ****     rxTail = 0;
  26               		.loc 1 263 13 view .LVU2
  27               	.LBB5:
 264:nicebots-libs/twis/6-GC-if-2/nb-usitwisl-if2.c ****     rxHead = 0;
  28               		.loc 1 264 5 view .LVU3
 264:nicebots-libs/twis/6-GC-if-2/nb-usitwisl-if2.c ****     rxHead = 0;
  29               		.loc 1 264 12 is_stmt 0 view .LVU4
  30 0000 1092 0000 		sts rxTail,__zero_reg__
 265:nicebots-libs/twis/6-GC-if-2/nb-usitwisl-if2.c ****     rxCount = 0;
  31               		.loc 1 265 5 is_stmt 1 view .LVU5
 265:nicebots-libs/twis/6-GC-if-2/nb-usitwisl-if2.c ****     rxCount = 0;
  32               		.loc 1 265 12 is_stmt 0 view .LVU6
  33 0004 1092 0000 		sts rxHead,__zero_reg__
 266:nicebots-libs/twis/6-GC-if-2/nb-usitwisl-if2.c ****     txTail = 0;
  34               		.loc 1 266 5 is_stmt 1 view .LVU7
 266:nicebots-libs/twis/6-GC-if-2/nb-usitwisl-if2.c ****     txTail = 0;
  35               		.loc 1 266 13 is_stmt 0 view .LVU8
  36 0008 1092 0000 		sts rxCount,__zero_reg__
 267:nicebots-libs/twis/6-GC-if-2/nb-usitwisl-if2.c ****     txHead = 0;
  37               		.loc 1 267 5 is_stmt 1 view .LVU9
 267:nicebots-libs/twis/6-GC-if-2/nb-usitwisl-if2.c ****     txHead = 0;
  38               		.loc 1 267 12 is_stmt 0 view .LVU10
  39 000c 1092 0000 		sts txTail,__zero_reg__
 268:nicebots-libs/twis/6-GC-if-2/nb-usitwisl-if2.c ****     txCount = 0;
  40               		.loc 1 268 5 is_stmt 1 view .LVU11
 268:nicebots-libs/twis/6-GC-if-2/nb-usitwisl-if2.c ****     txCount = 0;
  41               		.loc 1 268 12 is_stmt 0 view .LVU12
  42 0010 1092 0000 		sts txHead,__zero_reg__
 269:nicebots-libs/twis/6-GC-if-2/nb-usitwisl-if2.c **** }
  43               		.loc 1 269 5 is_stmt 1 view .LVU13
 269:nicebots-libs/twis/6-GC-if-2/nb-usitwisl-if2.c **** }
  44               		.loc 1 269 13 is_stmt 0 view .LVU14
  45 0014 1092 0000 		sts txCount,__zero_reg__
  46               	.LBE5:
  47               	.LBE4:
 277:nicebots-libs/twis/6-GC-if-2/nb-usitwisl-if2.c ****     slaveAddress = ownAddress;
  48               		.loc 1 277 5 is_stmt 1 view .LVU15
  49               		.loc 1 277 18 is_stmt 0 view .LVU16
  50 0018 8093 0000 		sts slaveAddress,r24
 278:nicebots-libs/twis/6-GC-if-2/nb-usitwisl-if2.c **** 
 279:nicebots-libs/twis/6-GC-if-2/nb-usitwisl-if2.c ****     // In Two Wire mode (USIWM1, USIWM0 = 1X), the slave USI will pull SCL
GAS LISTING C:\Users\casanovg\AppData\Local\Temp\ccAecxKz.s 			page 7


 280:nicebots-libs/twis/6-GC-if-2/nb-usitwisl-if2.c ****     // low when a start condition is detected or a counter overflow (only
 281:nicebots-libs/twis/6-GC-if-2/nb-usitwisl-if2.c ****     // for USIWM1, USIWM0 = 11).  This inserts a wait state.  SCL is released
 282:nicebots-libs/twis/6-GC-if-2/nb-usitwisl-if2.c ****     // by the ISRs (USI_START_vect and USI_OVERFLOW_vect).
 283:nicebots-libs/twis/6-GC-if-2/nb-usitwisl-if2.c **** 
 284:nicebots-libs/twis/6-GC-if-2/nb-usitwisl-if2.c ****     // Set SCL and SDA as output
 285:nicebots-libs/twis/6-GC-if-2/nb-usitwisl-if2.c ****     DDR_USI |= (1 << PORT_USI_SCL) | (1 << PORT_USI_SDA);
  51               		.loc 1 285 5 is_stmt 1 view .LVU17
  52               		.loc 1 285 13 is_stmt 0 view .LVU18
  53 001c 87B3      		in r24,0x17
  54               	.LVL1:
  55               		.loc 1 285 13 view .LVU19
  56 001e 8560      		ori r24,lo8(5)
  57 0020 87BB      		out 0x17,r24
  58               	.LVL2:
 286:nicebots-libs/twis/6-GC-if-2/nb-usitwisl-if2.c **** 
 287:nicebots-libs/twis/6-GC-if-2/nb-usitwisl-if2.c ****     // set SCL high
 288:nicebots-libs/twis/6-GC-if-2/nb-usitwisl-if2.c ****     PORT_USI |= (1 << PORT_USI_SCL);
  59               		.loc 1 288 5 is_stmt 1 view .LVU20
  60               		.loc 1 288 14 is_stmt 0 view .LVU21
  61 0022 C29A      		sbi 0x18,2
 289:nicebots-libs/twis/6-GC-if-2/nb-usitwisl-if2.c **** 
 290:nicebots-libs/twis/6-GC-if-2/nb-usitwisl-if2.c ****     // set SDA high
 291:nicebots-libs/twis/6-GC-if-2/nb-usitwisl-if2.c ****     PORT_USI |= (1 << PORT_USI_SDA);
  62               		.loc 1 291 5 is_stmt 1 view .LVU22
  63               		.loc 1 291 14 is_stmt 0 view .LVU23
  64 0024 C09A      		sbi 0x18,0
 292:nicebots-libs/twis/6-GC-if-2/nb-usitwisl-if2.c **** 
 293:nicebots-libs/twis/6-GC-if-2/nb-usitwisl-if2.c ****     // Set SDA as input
 294:nicebots-libs/twis/6-GC-if-2/nb-usitwisl-if2.c ****     DDR_USI &= ~(1 << PORT_USI_SDA);
  65               		.loc 1 294 5 is_stmt 1 view .LVU24
  66               		.loc 1 294 13 is_stmt 0 view .LVU25
  67 0026 B898      		cbi 0x17,0
 295:nicebots-libs/twis/6-GC-if-2/nb-usitwisl-if2.c **** 
 296:nicebots-libs/twis/6-GC-if-2/nb-usitwisl-if2.c ****     USICR =
  68               		.loc 1 296 5 is_stmt 1 view .LVU26
  69               		.loc 1 296 11 is_stmt 0 view .LVU27
  70 0028 88EA      		ldi r24,lo8(-88)
  71 002a 8DB9      		out 0xd,r24
 297:nicebots-libs/twis/6-GC-if-2/nb-usitwisl-if2.c ****         // enable Start Condition Interrupt
 298:nicebots-libs/twis/6-GC-if-2/nb-usitwisl-if2.c ****         (1 << USISIE) |
 299:nicebots-libs/twis/6-GC-if-2/nb-usitwisl-if2.c ****         // disable Overflow Interrupt
 300:nicebots-libs/twis/6-GC-if-2/nb-usitwisl-if2.c ****         (0 << USIOIE) |
 301:nicebots-libs/twis/6-GC-if-2/nb-usitwisl-if2.c ****         // set USI in Two-wire mode, no USI Counter overflow hold
 302:nicebots-libs/twis/6-GC-if-2/nb-usitwisl-if2.c ****         (1 << USIWM1) | (0 << USIWM0) |
 303:nicebots-libs/twis/6-GC-if-2/nb-usitwisl-if2.c ****         // Shift Register Clock Source = external, positive edge
 304:nicebots-libs/twis/6-GC-if-2/nb-usitwisl-if2.c ****         // 4-Bit Counter Source = external, both edges
 305:nicebots-libs/twis/6-GC-if-2/nb-usitwisl-if2.c ****         (1 << USICS1) | (0 << USICS0) | (0 << USICLK) |
 306:nicebots-libs/twis/6-GC-if-2/nb-usitwisl-if2.c ****         // no toggle clock-port pin
 307:nicebots-libs/twis/6-GC-if-2/nb-usitwisl-if2.c ****         (0 << USITC);
 308:nicebots-libs/twis/6-GC-if-2/nb-usitwisl-if2.c **** 
 309:nicebots-libs/twis/6-GC-if-2/nb-usitwisl-if2.c ****     // Clear all interrupt flags and reset overflow counter
 310:nicebots-libs/twis/6-GC-if-2/nb-usitwisl-if2.c ****     USISR = (1 << USI_START_COND_INT) | (1 << USIOIF) | (1 << USIPF) | (1 << USIDC);
  72               		.loc 1 310 5 is_stmt 1 view .LVU28
  73               		.loc 1 310 11 is_stmt 0 view .LVU29
  74 002c 80EF      		ldi r24,lo8(-16)
  75 002e 8EB9      		out 0xe,r24
  76               	/* epilogue start */
GAS LISTING C:\Users\casanovg\AppData\Local\Temp\ccAecxKz.s 			page 8


 311:nicebots-libs/twis/6-GC-if-2/nb-usitwisl-if2.c **** }
  77               		.loc 1 311 1 view .LVU30
  78 0030 0895      		ret
  79               		.cfi_endproc
  80               	.LFE1:
  81               		.size	UsiTwiSlaveInit, .-UsiTwiSlaveInit
  82               		.section	.text.UsiTwiDataInTransmitBuffer,"ax",@progbits
  83               	.global	UsiTwiDataInTransmitBuffer
  84               		.type	UsiTwiDataInTransmitBuffer, @function
  85               	UsiTwiDataInTransmitBuffer:
  86               	.LFB2:
 312:nicebots-libs/twis/6-GC-if-2/nb-usitwisl-if2.c **** 
 313:nicebots-libs/twis/6-GC-if-2/nb-usitwisl-if2.c **** // Function UsiTwiDataInTransmitBuffer
 314:nicebots-libs/twis/6-GC-if-2/nb-usitwisl-if2.c **** bool UsiTwiDataInTransmitBuffer(void) {
  87               		.loc 1 314 39 is_stmt 1 view -0
  88               		.cfi_startproc
  89               	/* prologue: function */
  90               	/* frame size = 0 */
  91               	/* stack size = 0 */
  92               	.L__stack_usage = 0
 315:nicebots-libs/twis/6-GC-if-2/nb-usitwisl-if2.c ****     // return 0 (false) if the receive buffer is empty
 316:nicebots-libs/twis/6-GC-if-2/nb-usitwisl-if2.c ****     return txCount;
  93               		.loc 1 316 5 view .LVU32
  94               		.loc 1 316 12 is_stmt 0 view .LVU33
  95 0000 9091 0000 		lds r25,txCount
  96 0004 81E0      		ldi r24,lo8(1)
  97 0006 9111      		cpse r25,__zero_reg__
  98 0008 00C0      		rjmp .L3
  99 000a 80E0      		ldi r24,0
 100               	.L3:
 101               	/* epilogue start */
 317:nicebots-libs/twis/6-GC-if-2/nb-usitwisl-if2.c **** }
 102               		.loc 1 317 1 view .LVU34
 103 000c 0895      		ret
 104               		.cfi_endproc
 105               	.LFE2:
 106               		.size	UsiTwiDataInTransmitBuffer, .-UsiTwiDataInTransmitBuffer
 107               		.section	.text.UsiTwiTransmitByte,"ax",@progbits
 108               	.global	UsiTwiTransmitByte
 109               		.type	UsiTwiTransmitByte, @function
 110               	UsiTwiTransmitByte:
 111               	.LFB3:
 318:nicebots-libs/twis/6-GC-if-2/nb-usitwisl-if2.c **** 
 319:nicebots-libs/twis/6-GC-if-2/nb-usitwisl-if2.c **** // Function UsiTwiTransmitByte
 320:nicebots-libs/twis/6-GC-if-2/nb-usitwisl-if2.c **** void UsiTwiTransmitByte(uint8_t data) {
 112               		.loc 1 320 39 is_stmt 1 view -0
 113               		.cfi_startproc
 114               	/* prologue: function */
 115               	/* frame size = 0 */
 116               	/* stack size = 0 */
 117               	.L__stack_usage = 0
 118               	.LVL3:
 119               	.L5:
 321:nicebots-libs/twis/6-GC-if-2/nb-usitwisl-if2.c **** 
 322:nicebots-libs/twis/6-GC-if-2/nb-usitwisl-if2.c ****     // Wait for free space in buffer
 323:nicebots-libs/twis/6-GC-if-2/nb-usitwisl-if2.c ****     while (txCount == TWI_TX_BUFFER_SIZE) {
 324:nicebots-libs/twis/6-GC-if-2/nb-usitwisl-if2.c ****         // Nothing
GAS LISTING C:\Users\casanovg\AppData\Local\Temp\ccAecxKz.s 			page 9


 325:nicebots-libs/twis/6-GC-if-2/nb-usitwisl-if2.c ****     };
 120               		.loc 1 325 5 discriminator 1 view .LVU36
 323:nicebots-libs/twis/6-GC-if-2/nb-usitwisl-if2.c ****         // Nothing
 121               		.loc 1 323 20 is_stmt 0 discriminator 1 view .LVU37
 122 0000 9091 0000 		lds r25,txCount
 323:nicebots-libs/twis/6-GC-if-2/nb-usitwisl-if2.c ****         // Nothing
 123               		.loc 1 323 11 discriminator 1 view .LVU38
 124 0004 9031      		cpi r25,lo8(16)
 125 0006 01F0      		breq .L5
 126               		.loc 1 325 6 is_stmt 1 view .LVU39
 326:nicebots-libs/twis/6-GC-if-2/nb-usitwisl-if2.c **** 
 327:nicebots-libs/twis/6-GC-if-2/nb-usitwisl-if2.c ****     // Store data in buffer
 328:nicebots-libs/twis/6-GC-if-2/nb-usitwisl-if2.c ****     txBuf[txHead] = data;
 127               		.loc 1 328 5 view .LVU40
 128               		.loc 1 328 10 is_stmt 0 view .LVU41
 129 0008 E091 0000 		lds r30,txHead
 130 000c F0E0      		ldi r31,0
 131               		.loc 1 328 19 view .LVU42
 132 000e E050      		subi r30,lo8(-(txBuf))
 133 0010 F040      		sbci r31,hi8(-(txBuf))
 134 0012 8083      		st Z,r24
 329:nicebots-libs/twis/6-GC-if-2/nb-usitwisl-if2.c ****     txHead = (txHead + 1) & TWI_TX_BUFFER_MASK;
 135               		.loc 1 329 5 is_stmt 1 view .LVU43
 136               		.loc 1 329 27 is_stmt 0 view .LVU44
 137 0014 8091 0000 		lds r24,txHead
 138               	.LVL4:
 139               		.loc 1 329 22 view .LVU45
 140 0018 8F5F      		subi r24,lo8(-(1))
 141               		.loc 1 329 27 view .LVU46
 142 001a 8F70      		andi r24,lo8(15)
 143               		.loc 1 329 12 view .LVU47
 144 001c 8093 0000 		sts txHead,r24
 330:nicebots-libs/twis/6-GC-if-2/nb-usitwisl-if2.c ****     txCount++;
 145               		.loc 1 330 5 is_stmt 1 view .LVU48
 146               		.loc 1 330 12 is_stmt 0 view .LVU49
 147 0020 8091 0000 		lds r24,txCount
 148 0024 8F5F      		subi r24,lo8(-(1))
 149 0026 8093 0000 		sts txCount,r24
 150               	/* epilogue start */
 331:nicebots-libs/twis/6-GC-if-2/nb-usitwisl-if2.c **** }
 151               		.loc 1 331 1 view .LVU50
 152 002a 0895      		ret
 153               		.cfi_endproc
 154               	.LFE3:
 155               		.size	UsiTwiTransmitByte, .-UsiTwiTransmitByte
 156               		.section	.text.UsiTwiReceiveByte,"ax",@progbits
 157               	.global	UsiTwiReceiveByte
 158               		.type	UsiTwiReceiveByte, @function
 159               	UsiTwiReceiveByte:
 160               	.LFB4:
 332:nicebots-libs/twis/6-GC-if-2/nb-usitwisl-if2.c **** 
 333:nicebots-libs/twis/6-GC-if-2/nb-usitwisl-if2.c **** // Function UsiTwiReceiveByte
 334:nicebots-libs/twis/6-GC-if-2/nb-usitwisl-if2.c **** uint8_t UsiTwiReceiveByte(void) {
 161               		.loc 1 334 33 is_stmt 1 view -0
 162               		.cfi_startproc
 163               	/* prologue: function */
 164               	/* frame size = 0 */
GAS LISTING C:\Users\casanovg\AppData\Local\Temp\ccAecxKz.s 			page 10


 165               	/* stack size = 0 */
 166               	.L__stack_usage = 0
 167               	.L8:
 335:nicebots-libs/twis/6-GC-if-2/nb-usitwisl-if2.c ****     uint8_t rtn_byte;
 336:nicebots-libs/twis/6-GC-if-2/nb-usitwisl-if2.c ****     // wait for Rx data
 337:nicebots-libs/twis/6-GC-if-2/nb-usitwisl-if2.c ****     while (!rxCount) {
 338:nicebots-libs/twis/6-GC-if-2/nb-usitwisl-if2.c ****         // Nothing
 339:nicebots-libs/twis/6-GC-if-2/nb-usitwisl-if2.c ****     };
 168               		.loc 1 339 5 discriminator 1 view .LVU52
 337:nicebots-libs/twis/6-GC-if-2/nb-usitwisl-if2.c ****         // Nothing
 169               		.loc 1 337 12 is_stmt 0 discriminator 1 view .LVU53
 170 0000 8091 0000 		lds r24,rxCount
 337:nicebots-libs/twis/6-GC-if-2/nb-usitwisl-if2.c ****         // Nothing
 171               		.loc 1 337 11 discriminator 1 view .LVU54
 172 0004 8823      		tst r24
 173 0006 01F0      		breq .L8
 174               		.loc 1 339 6 is_stmt 1 view .LVU55
 340:nicebots-libs/twis/6-GC-if-2/nb-usitwisl-if2.c **** 
 341:nicebots-libs/twis/6-GC-if-2/nb-usitwisl-if2.c ****     rtn_byte = rxBuf[rxTail];
 175               		.loc 1 341 5 view .LVU56
 176               		.loc 1 341 21 is_stmt 0 view .LVU57
 177 0008 E091 0000 		lds r30,rxTail
 178 000c F0E0      		ldi r31,0
 179               		.loc 1 341 14 view .LVU58
 180 000e E050      		subi r30,lo8(-(rxBuf))
 181 0010 F040      		sbci r31,hi8(-(rxBuf))
 182               	.LVL5:
 342:nicebots-libs/twis/6-GC-if-2/nb-usitwisl-if2.c ****     // calculate buffer index
 343:nicebots-libs/twis/6-GC-if-2/nb-usitwisl-if2.c ****     rxTail = (rxTail + 1) & TWI_RX_BUFFER_MASK;
 183               		.loc 1 343 5 is_stmt 1 view .LVU59
 184               		.loc 1 343 27 is_stmt 0 view .LVU60
 185 0012 8091 0000 		lds r24,rxTail
 186               		.loc 1 343 22 view .LVU61
 187 0016 8F5F      		subi r24,lo8(-(1))
 188               		.loc 1 343 27 view .LVU62
 189 0018 8F70      		andi r24,lo8(15)
 190               		.loc 1 343 12 view .LVU63
 191 001a 8093 0000 		sts rxTail,r24
 344:nicebots-libs/twis/6-GC-if-2/nb-usitwisl-if2.c ****     rxCount--;
 192               		.loc 1 344 5 is_stmt 1 view .LVU64
 193               		.loc 1 344 12 is_stmt 0 view .LVU65
 194 001e 8091 0000 		lds r24,rxCount
 195 0022 8150      		subi r24,lo8(-(-1))
 196 0024 8093 0000 		sts rxCount,r24
 345:nicebots-libs/twis/6-GC-if-2/nb-usitwisl-if2.c **** 
 346:nicebots-libs/twis/6-GC-if-2/nb-usitwisl-if2.c ****     // return data from the buffer.
 347:nicebots-libs/twis/6-GC-if-2/nb-usitwisl-if2.c ****     return rtn_byte;
 197               		.loc 1 347 5 is_stmt 1 view .LVU66
 348:nicebots-libs/twis/6-GC-if-2/nb-usitwisl-if2.c **** }
 198               		.loc 1 348 1 is_stmt 0 view .LVU67
 199 0028 8081      		ld r24,Z
 200               	/* epilogue start */
 201 002a 0895      		ret
 202               		.cfi_endproc
 203               	.LFE4:
 204               		.size	UsiTwiReceiveByte, .-UsiTwiReceiveByte
 205               		.section	.text.UsiTwiAmountDataInReceiveBuffer,"ax",@progbits
GAS LISTING C:\Users\casanovg\AppData\Local\Temp\ccAecxKz.s 			page 11


 206               	.global	UsiTwiAmountDataInReceiveBuffer
 207               		.type	UsiTwiAmountDataInReceiveBuffer, @function
 208               	UsiTwiAmountDataInReceiveBuffer:
 209               	.LFB5:
 349:nicebots-libs/twis/6-GC-if-2/nb-usitwisl-if2.c **** 
 350:nicebots-libs/twis/6-GC-if-2/nb-usitwisl-if2.c **** // Function UsiTwiAmountDataInReceiveBuffer
 351:nicebots-libs/twis/6-GC-if-2/nb-usitwisl-if2.c **** uint8_t UsiTwiAmountDataInReceiveBuffer(void) {
 210               		.loc 1 351 47 is_stmt 1 view -0
 211               		.cfi_startproc
 212               	/* prologue: function */
 213               	/* frame size = 0 */
 214               	/* stack size = 0 */
 215               	.L__stack_usage = 0
 352:nicebots-libs/twis/6-GC-if-2/nb-usitwisl-if2.c ****     return rxCount;
 216               		.loc 1 352 5 view .LVU69
 217               		.loc 1 352 12 is_stmt 0 view .LVU70
 218 0000 8091 0000 		lds r24,rxCount
 219               	/* epilogue start */
 353:nicebots-libs/twis/6-GC-if-2/nb-usitwisl-if2.c **** }
 220               		.loc 1 353 1 view .LVU71
 221 0004 0895      		ret
 222               		.cfi_endproc
 223               	.LFE5:
 224               		.size	UsiTwiAmountDataInReceiveBuffer, .-UsiTwiAmountDataInReceiveBuffer
 225               		.section	.text.UsiStartHandler,"ax",@progbits
 226               	.global	UsiStartHandler
 227               		.type	UsiStartHandler, @function
 228               	UsiStartHandler:
 229               	.LFB6:
 354:nicebots-libs/twis/6-GC-if-2/nb-usitwisl-if2.c **** 
 355:nicebots-libs/twis/6-GC-if-2/nb-usitwisl-if2.c **** // Function UsiStartHandler
 356:nicebots-libs/twis/6-GC-if-2/nb-usitwisl-if2.c **** // GC: Interrupt-like function
 357:nicebots-libs/twis/6-GC-if-2/nb-usitwisl-if2.c **** void UsiStartHandler(void) {
 230               		.loc 1 357 28 is_stmt 1 view -0
 231               		.cfi_startproc
 232               	/* prologue: function */
 233               	/* frame size = 0 */
 234               	/* stack size = 0 */
 235               	.L__stack_usage = 0
 358:nicebots-libs/twis/6-GC-if-2/nb-usitwisl-if2.c ****     // This triggers on second write, but claims to the callback there is only *one* byte in buffer
 359:nicebots-libs/twis/6-GC-if-2/nb-usitwisl-if2.c ****     //ONSTOP_USI_RECEIVE_CALLBACK();
 360:nicebots-libs/twis/6-GC-if-2/nb-usitwisl-if2.c **** 
 361:nicebots-libs/twis/6-GC-if-2/nb-usitwisl-if2.c ****     // This triggers on second write, but claims to the callback there is only *one* byte in buffer
 362:nicebots-libs/twis/6-GC-if-2/nb-usitwisl-if2.c ****     //USI_RECEIVE_CALLBACK();
 363:nicebots-libs/twis/6-GC-if-2/nb-usitwisl-if2.c **** 
 364:nicebots-libs/twis/6-GC-if-2/nb-usitwisl-if2.c ****     // set default starting conditions for new TWI package
 365:nicebots-libs/twis/6-GC-if-2/nb-usitwisl-if2.c ****     overflowState = USI_SLAVE_CHECK_ADDRESS;
 236               		.loc 1 365 5 view .LVU73
 237               		.loc 1 365 19 is_stmt 0 view .LVU74
 238 0000 1092 0000 		sts overflowState,__zero_reg__
 366:nicebots-libs/twis/6-GC-if-2/nb-usitwisl-if2.c **** 
 367:nicebots-libs/twis/6-GC-if-2/nb-usitwisl-if2.c ****     // set SDA as input
 368:nicebots-libs/twis/6-GC-if-2/nb-usitwisl-if2.c ****     DDR_USI &= ~(1 << PORT_USI_SDA);
 239               		.loc 1 368 5 is_stmt 1 view .LVU75
 240               		.loc 1 368 13 is_stmt 0 view .LVU76
 241 0004 B898      		cbi 0x17,0
 369:nicebots-libs/twis/6-GC-if-2/nb-usitwisl-if2.c **** 
GAS LISTING C:\Users\casanovg\AppData\Local\Temp\ccAecxKz.s 			page 12


 370:nicebots-libs/twis/6-GC-if-2/nb-usitwisl-if2.c ****     // wait for SCL to go low to ensure the Start Condition has completed (the
 371:nicebots-libs/twis/6-GC-if-2/nb-usitwisl-if2.c ****     // start detector will hold SCL low ) - if a Stop Condition arises then leave
 372:nicebots-libs/twis/6-GC-if-2/nb-usitwisl-if2.c ****     // the interrupt to prevent waiting forever - don't use USISR to test for Stop
 373:nicebots-libs/twis/6-GC-if-2/nb-usitwisl-if2.c ****     // Condition as in Application Note AVR312 because the Stop Condition Flag is
 374:nicebots-libs/twis/6-GC-if-2/nb-usitwisl-if2.c ****     // going to be set from the last TWI sequence
 375:nicebots-libs/twis/6-GC-if-2/nb-usitwisl-if2.c ****     while ( (PIN_USI & (1<<PORT_USI_SCL)) && (!(PIN_USI & (1<<PORT_USI_SDA))) );
 242               		.loc 1 375 5 is_stmt 1 view .LVU77
 243               	.L13:
 244               		.loc 1 375 80 discriminator 2 view .LVU78
 245               		.loc 1 375 11 is_stmt 0 discriminator 2 view .LVU79
 246 0006 B29B      		sbis 0x16,2
 247 0008 00C0      		rjmp .L12
 248               		.loc 1 375 43 discriminator 1 view .LVU80
 249 000a B09B      		sbis 0x16,0
 250 000c 00C0      		rjmp .L13
 251               	.L12:
 376:nicebots-libs/twis/6-GC-if-2/nb-usitwisl-if2.c ****         // SCL his high
 377:nicebots-libs/twis/6-GC-if-2/nb-usitwisl-if2.c ****         // (PIN_USI & (1 << PIN_USI_SCL)) &&
 378:nicebots-libs/twis/6-GC-if-2/nb-usitwisl-if2.c ****         // // and SDA is low
 379:nicebots-libs/twis/6-GC-if-2/nb-usitwisl-if2.c ****         // !((PIN_USI & (1 << PIN_USI_SDA))))
 380:nicebots-libs/twis/6-GC-if-2/nb-usitwisl-if2.c ****         // ;
 381:nicebots-libs/twis/6-GC-if-2/nb-usitwisl-if2.c ****         
 382:nicebots-libs/twis/6-GC-if-2/nb-usitwisl-if2.c **** 
 383:nicebots-libs/twis/6-GC-if-2/nb-usitwisl-if2.c ****     if (!(PIN_USI & (1 << PIN_USI_SDA))) {
 252               		.loc 1 383 5 is_stmt 1 view .LVU81
 253               		.loc 1 383 8 is_stmt 0 view .LVU82
 254 000e B099      		sbic 0x16,0
 255 0010 00C0      		rjmp .L14
 384:nicebots-libs/twis/6-GC-if-2/nb-usitwisl-if2.c ****         // a Stop Condition did not occur
 385:nicebots-libs/twis/6-GC-if-2/nb-usitwisl-if2.c **** 
 386:nicebots-libs/twis/6-GC-if-2/nb-usitwisl-if2.c ****         USICR =
 256               		.loc 1 386 9 is_stmt 1 view .LVU83
 257               		.loc 1 386 15 is_stmt 0 view .LVU84
 258 0012 88EF      		ldi r24,lo8(-8)
 259               	.L20:
 387:nicebots-libs/twis/6-GC-if-2/nb-usitwisl-if2.c ****             // keep Start Condition Interrupt enabled to detect RESTART
 388:nicebots-libs/twis/6-GC-if-2/nb-usitwisl-if2.c ****             (1 << USISIE) |
 389:nicebots-libs/twis/6-GC-if-2/nb-usitwisl-if2.c ****             // enable Overflow Interrupt
 390:nicebots-libs/twis/6-GC-if-2/nb-usitwisl-if2.c ****             (1 << USIOIE) |
 391:nicebots-libs/twis/6-GC-if-2/nb-usitwisl-if2.c ****             // set USI in Two-wire mode, hold SCL low on USI Counter overflow
 392:nicebots-libs/twis/6-GC-if-2/nb-usitwisl-if2.c ****             (1 << USIWM1) | (1 << USIWM0) |
 393:nicebots-libs/twis/6-GC-if-2/nb-usitwisl-if2.c ****             // Shift Register Clock Source = External, positive edge
 394:nicebots-libs/twis/6-GC-if-2/nb-usitwisl-if2.c ****             // 4-Bit Counter Source = external, both edges
 395:nicebots-libs/twis/6-GC-if-2/nb-usitwisl-if2.c ****             (1 << USICS1) | (0 << USICS0) | (0 << USICLK) |
 396:nicebots-libs/twis/6-GC-if-2/nb-usitwisl-if2.c ****             // no toggle clock-port pin
 397:nicebots-libs/twis/6-GC-if-2/nb-usitwisl-if2.c ****             (0 << USITC);
 398:nicebots-libs/twis/6-GC-if-2/nb-usitwisl-if2.c ****     } else {
 399:nicebots-libs/twis/6-GC-if-2/nb-usitwisl-if2.c ****         // a Stop Condition did occur
 400:nicebots-libs/twis/6-GC-if-2/nb-usitwisl-if2.c **** 
 401:nicebots-libs/twis/6-GC-if-2/nb-usitwisl-if2.c ****         USICR =
 260               		.loc 1 401 15 view .LVU85
 261 0014 8DB9      		out 0xd,r24
 402:nicebots-libs/twis/6-GC-if-2/nb-usitwisl-if2.c ****             // enable Start Condition Interrupt
 403:nicebots-libs/twis/6-GC-if-2/nb-usitwisl-if2.c ****             (1 << USISIE) |
 404:nicebots-libs/twis/6-GC-if-2/nb-usitwisl-if2.c ****             // disable Overflow Interrupt
 405:nicebots-libs/twis/6-GC-if-2/nb-usitwisl-if2.c ****             (0 << USIOIE) |
 406:nicebots-libs/twis/6-GC-if-2/nb-usitwisl-if2.c ****             // set USI in Two-wire mode, no USI Counter overflow hold
GAS LISTING C:\Users\casanovg\AppData\Local\Temp\ccAecxKz.s 			page 13


 407:nicebots-libs/twis/6-GC-if-2/nb-usitwisl-if2.c ****             (1 << USIWM1) | (0 << USIWM0) |
 408:nicebots-libs/twis/6-GC-if-2/nb-usitwisl-if2.c ****             // Shift Register Clock Source = external, positive edge
 409:nicebots-libs/twis/6-GC-if-2/nb-usitwisl-if2.c ****             // 4-Bit Counter Source = external, both edges
 410:nicebots-libs/twis/6-GC-if-2/nb-usitwisl-if2.c ****             (1 << USICS1) | (0 << USICS0) | (0 << USICLK) |
 411:nicebots-libs/twis/6-GC-if-2/nb-usitwisl-if2.c ****             // no toggle clock-port pin
 412:nicebots-libs/twis/6-GC-if-2/nb-usitwisl-if2.c ****             (0 << USITC);
 413:nicebots-libs/twis/6-GC-if-2/nb-usitwisl-if2.c ****     }
 414:nicebots-libs/twis/6-GC-if-2/nb-usitwisl-if2.c **** 
 415:nicebots-libs/twis/6-GC-if-2/nb-usitwisl-if2.c ****     USISR =
 262               		.loc 1 415 5 is_stmt 1 view .LVU86
 263               		.loc 1 415 11 is_stmt 0 view .LVU87
 264 0016 80EF      		ldi r24,lo8(-16)
 265 0018 8EB9      		out 0xe,r24
 416:nicebots-libs/twis/6-GC-if-2/nb-usitwisl-if2.c ****         // clear interrupt flags - resetting the Start Condition Flag will
 417:nicebots-libs/twis/6-GC-if-2/nb-usitwisl-if2.c ****         // release SCL
 418:nicebots-libs/twis/6-GC-if-2/nb-usitwisl-if2.c ****         (1 << USI_START_COND_INT) | (1 << USIOIF) |
 419:nicebots-libs/twis/6-GC-if-2/nb-usitwisl-if2.c ****         (1 << USIPF) | (1 << USIDC) |
 420:nicebots-libs/twis/6-GC-if-2/nb-usitwisl-if2.c ****         // set USI to sample 8 bits (count 16 external SCL pin toggles)
 421:nicebots-libs/twis/6-GC-if-2/nb-usitwisl-if2.c ****         (0x0 << USICNT0);
 422:nicebots-libs/twis/6-GC-if-2/nb-usitwisl-if2.c **** 
 423:nicebots-libs/twis/6-GC-if-2/nb-usitwisl-if2.c ****     USISR |= (1 << USISIF); /* Reset the USI start flag in USISR register to prepare for new ints *
 266               		.loc 1 423 5 is_stmt 1 view .LVU88
 267               		.loc 1 423 11 is_stmt 0 view .LVU89
 268 001a 779A      		sbi 0xe,7
 269               	/* epilogue start */
 424:nicebots-libs/twis/6-GC-if-2/nb-usitwisl-if2.c **** }
 270               		.loc 1 424 1 view .LVU90
 271 001c 0895      		ret
 272               	.L14:
 401:nicebots-libs/twis/6-GC-if-2/nb-usitwisl-if2.c ****             // enable Start Condition Interrupt
 273               		.loc 1 401 9 is_stmt 1 view .LVU91
 401:nicebots-libs/twis/6-GC-if-2/nb-usitwisl-if2.c ****             // enable Start Condition Interrupt
 274               		.loc 1 401 15 is_stmt 0 view .LVU92
 275 001e 88EA      		ldi r24,lo8(-88)
 276 0020 00C0      		rjmp .L20
 277               		.cfi_endproc
 278               	.LFE6:
 279               		.size	UsiStartHandler, .-UsiStartHandler
 280               		.section	.text.UsiOverflowHandler,"ax",@progbits
 281               	.global	UsiOverflowHandler
 282               		.type	UsiOverflowHandler, @function
 283               	UsiOverflowHandler:
 284               	.LFB7:
 425:nicebots-libs/twis/6-GC-if-2/nb-usitwisl-if2.c **** 
 426:nicebots-libs/twis/6-GC-if-2/nb-usitwisl-if2.c **** // Function UsiOverflowHandler
 427:nicebots-libs/twis/6-GC-if-2/nb-usitwisl-if2.c **** // GC: Interrupt-like function
 428:nicebots-libs/twis/6-GC-if-2/nb-usitwisl-if2.c **** void UsiOverflowHandler(void) {
 285               		.loc 1 428 31 is_stmt 1 view -0
 286               		.cfi_startproc
 287               	/* prologue: function */
 288               	/* frame size = 0 */
 289               	/* stack size = 0 */
 290               	.L__stack_usage = 0
 429:nicebots-libs/twis/6-GC-if-2/nb-usitwisl-if2.c ****     switch (overflowState) {
 291               		.loc 1 429 5 view .LVU94
 292 0000 8091 0000 		lds r24,overflowState
 293 0004 8230      		cpi r24,lo8(2)
GAS LISTING C:\Users\casanovg\AppData\Local\Temp\ccAecxKz.s 			page 14


 294 0006 01F4      		brne .+2
 295 0008 00C0      		rjmp .L22
 296 000a 00F4      		brsh .L23
 297 000c 8823      		tst r24
 298 000e 01F0      		breq .L24
 299 0010 8130      		cpi r24,lo8(1)
 300 0012 01F4      		brne .+2
 301 0014 00C0      		rjmp .L25
 302               	.L26:
 430:nicebots-libs/twis/6-GC-if-2/nb-usitwisl-if2.c ****         // Address mode: check address and send ACK (and next USI_SLAVE_SEND_DATA) if OK,
 431:nicebots-libs/twis/6-GC-if-2/nb-usitwisl-if2.c ****         // else reset USI
 432:nicebots-libs/twis/6-GC-if-2/nb-usitwisl-if2.c ****         case USI_SLAVE_CHECK_ADDRESS: {
 433:nicebots-libs/twis/6-GC-if-2/nb-usitwisl-if2.c ****             // #############################################################
 434:nicebots-libs/twis/6-GC-if-2/nb-usitwisl-if2.c ****             // # GC: Disable this device answers to "general calls"
 435:nicebots-libs/twis/6-GC-if-2/nb-usitwisl-if2.c ****             // #############################################################
 436:nicebots-libs/twis/6-GC-if-2/nb-usitwisl-if2.c ****             // ****** if ( ( USIDR == 0 ) || ( ( USIDR >> 1 ) == slaveAddress) ) {
 437:nicebots-libs/twis/6-GC-if-2/nb-usitwisl-if2.c ****             if (((USIDR >> 1) & 0x3F) == slaveAddress) {
 438:nicebots-libs/twis/6-GC-if-2/nb-usitwisl-if2.c ****                 if (USIDR & 0x01) {             /* If 1: Slave sends data to master */
 439:nicebots-libs/twis/6-GC-if-2/nb-usitwisl-if2.c ****                     USI_REQUEST_CALLBACK();
 440:nicebots-libs/twis/6-GC-if-2/nb-usitwisl-if2.c ****                     overflowState = USI_SLAVE_SEND_DATA;
 441:nicebots-libs/twis/6-GC-if-2/nb-usitwisl-if2.c ****                 } else {                        /* If 1: Slave receives data from master */
 442:nicebots-libs/twis/6-GC-if-2/nb-usitwisl-if2.c ****                     overflowState = USI_SLAVE_REQUEST_DATA;
 443:nicebots-libs/twis/6-GC-if-2/nb-usitwisl-if2.c ****                 }
 444:nicebots-libs/twis/6-GC-if-2/nb-usitwisl-if2.c ****                 SET_USI_TO_SEND_ACK();
 445:nicebots-libs/twis/6-GC-if-2/nb-usitwisl-if2.c ****             }
 446:nicebots-libs/twis/6-GC-if-2/nb-usitwisl-if2.c ****             else {
 447:nicebots-libs/twis/6-GC-if-2/nb-usitwisl-if2.c ****                 SET_USI_TO_TWI_START_CONDITION_MODE();
 448:nicebots-libs/twis/6-GC-if-2/nb-usitwisl-if2.c ****             }
 449:nicebots-libs/twis/6-GC-if-2/nb-usitwisl-if2.c ****             break;
 450:nicebots-libs/twis/6-GC-if-2/nb-usitwisl-if2.c ****         }
 451:nicebots-libs/twis/6-GC-if-2/nb-usitwisl-if2.c ****         // Master write data mode: check reply and goto USI_SLAVE_SEND_DATA if OK,
 452:nicebots-libs/twis/6-GC-if-2/nb-usitwisl-if2.c ****         // else reset USI
 453:nicebots-libs/twis/6-GC-if-2/nb-usitwisl-if2.c ****         case USI_SLAVE_CHECK_REPLY_FROM_SEND_DATA: {
 454:nicebots-libs/twis/6-GC-if-2/nb-usitwisl-if2.c ****             if (USIDR) {
 455:nicebots-libs/twis/6-GC-if-2/nb-usitwisl-if2.c ****                 // if NACK, the master does not want more data
 456:nicebots-libs/twis/6-GC-if-2/nb-usitwisl-if2.c ****                 SET_USI_TO_TWI_START_CONDITION_MODE();
 457:nicebots-libs/twis/6-GC-if-2/nb-usitwisl-if2.c ****                 return;
 458:nicebots-libs/twis/6-GC-if-2/nb-usitwisl-if2.c ****             }
 459:nicebots-libs/twis/6-GC-if-2/nb-usitwisl-if2.c ****         }
 460:nicebots-libs/twis/6-GC-if-2/nb-usitwisl-if2.c ****         // From here we just drop straight into USI_SLAVE_SEND_DATA if the
 461:nicebots-libs/twis/6-GC-if-2/nb-usitwisl-if2.c ****         // master sent an ACK
 462:nicebots-libs/twis/6-GC-if-2/nb-usitwisl-if2.c **** 
 463:nicebots-libs/twis/6-GC-if-2/nb-usitwisl-if2.c ****         // Copy data from buffer to USIDR and set USI to shift byte
 464:nicebots-libs/twis/6-GC-if-2/nb-usitwisl-if2.c ****         // Next USI_SLAVE_REQUEST_REPLY_FROM_SEND_DATA
 465:nicebots-libs/twis/6-GC-if-2/nb-usitwisl-if2.c ****         case USI_SLAVE_SEND_DATA: {
 466:nicebots-libs/twis/6-GC-if-2/nb-usitwisl-if2.c ****             // Get data from Buffer
 467:nicebots-libs/twis/6-GC-if-2/nb-usitwisl-if2.c ****             if (txCount) {
 468:nicebots-libs/twis/6-GC-if-2/nb-usitwisl-if2.c ****                 USIDR = txBuf[txTail];
 469:nicebots-libs/twis/6-GC-if-2/nb-usitwisl-if2.c ****                 txTail = (txTail + 1) & TWI_TX_BUFFER_MASK;
 470:nicebots-libs/twis/6-GC-if-2/nb-usitwisl-if2.c ****                 txCount--;
 471:nicebots-libs/twis/6-GC-if-2/nb-usitwisl-if2.c ****             } else {
 472:nicebots-libs/twis/6-GC-if-2/nb-usitwisl-if2.c ****                 // The buffer is empty
 473:nicebots-libs/twis/6-GC-if-2/nb-usitwisl-if2.c ****                 SET_USI_TO_READ_ACK();  // This might be necessary sometimes see http://www.avrfrea
 474:nicebots-libs/twis/6-GC-if-2/nb-usitwisl-if2.c ****                 SET_USI_TO_TWI_START_CONDITION_MODE();
 475:nicebots-libs/twis/6-GC-if-2/nb-usitwisl-if2.c ****                 return;
 476:nicebots-libs/twis/6-GC-if-2/nb-usitwisl-if2.c ****             }
 477:nicebots-libs/twis/6-GC-if-2/nb-usitwisl-if2.c ****             overflowState = USI_SLAVE_REQUEST_REPLY_FROM_SEND_DATA;
GAS LISTING C:\Users\casanovg\AppData\Local\Temp\ccAecxKz.s 			page 15


 478:nicebots-libs/twis/6-GC-if-2/nb-usitwisl-if2.c ****             SET_USI_TO_SEND_DATA();
 479:nicebots-libs/twis/6-GC-if-2/nb-usitwisl-if2.c ****             break;
 480:nicebots-libs/twis/6-GC-if-2/nb-usitwisl-if2.c ****         }
 481:nicebots-libs/twis/6-GC-if-2/nb-usitwisl-if2.c **** 
 482:nicebots-libs/twis/6-GC-if-2/nb-usitwisl-if2.c ****         // Set USI to sample reply from master
 483:nicebots-libs/twis/6-GC-if-2/nb-usitwisl-if2.c ****         // Next USI_SLAVE_CHECK_REPLY_FROM_SEND_DATA
 484:nicebots-libs/twis/6-GC-if-2/nb-usitwisl-if2.c ****         case USI_SLAVE_REQUEST_REPLY_FROM_SEND_DATA: {
 485:nicebots-libs/twis/6-GC-if-2/nb-usitwisl-if2.c ****             overflowState = USI_SLAVE_CHECK_REPLY_FROM_SEND_DATA;
 486:nicebots-libs/twis/6-GC-if-2/nb-usitwisl-if2.c ****             SET_USI_TO_READ_ACK();
 487:nicebots-libs/twis/6-GC-if-2/nb-usitwisl-if2.c ****             break;
 488:nicebots-libs/twis/6-GC-if-2/nb-usitwisl-if2.c ****         }
 489:nicebots-libs/twis/6-GC-if-2/nb-usitwisl-if2.c **** 
 490:nicebots-libs/twis/6-GC-if-2/nb-usitwisl-if2.c ****         // Master read data mode: set USI to sample data from master, next
 491:nicebots-libs/twis/6-GC-if-2/nb-usitwisl-if2.c ****         // USI_SLAVE_GET_DATA_AND_SEND_ACK
 492:nicebots-libs/twis/6-GC-if-2/nb-usitwisl-if2.c ****         case USI_SLAVE_REQUEST_DATA: {
 493:nicebots-libs/twis/6-GC-if-2/nb-usitwisl-if2.c ****             overflowState = USI_SLAVE_GET_DATA_AND_SEND_ACK;
 494:nicebots-libs/twis/6-GC-if-2/nb-usitwisl-if2.c ****             SET_USI_TO_READ_DATA();
 495:nicebots-libs/twis/6-GC-if-2/nb-usitwisl-if2.c ****             break;
 496:nicebots-libs/twis/6-GC-if-2/nb-usitwisl-if2.c ****         }
 497:nicebots-libs/twis/6-GC-if-2/nb-usitwisl-if2.c ****         // Copy data from USIDR and send ACK
 498:nicebots-libs/twis/6-GC-if-2/nb-usitwisl-if2.c ****         // Next USI_SLAVE_REQUEST_DATA
 499:nicebots-libs/twis/6-GC-if-2/nb-usitwisl-if2.c ****         case USI_SLAVE_GET_DATA_AND_SEND_ACK: {
 500:nicebots-libs/twis/6-GC-if-2/nb-usitwisl-if2.c ****             // put data into buffer
 501:nicebots-libs/twis/6-GC-if-2/nb-usitwisl-if2.c ****             // check buffer size
 502:nicebots-libs/twis/6-GC-if-2/nb-usitwisl-if2.c ****             if (rxCount < TWI_RX_BUFFER_SIZE) {
 503:nicebots-libs/twis/6-GC-if-2/nb-usitwisl-if2.c ****                 rxBuf[rxHead] = USIDR;
 504:nicebots-libs/twis/6-GC-if-2/nb-usitwisl-if2.c ****                 rxHead = (rxHead + 1) & TWI_RX_BUFFER_MASK;
 505:nicebots-libs/twis/6-GC-if-2/nb-usitwisl-if2.c ****                 rxCount++;
 506:nicebots-libs/twis/6-GC-if-2/nb-usitwisl-if2.c ****             } else {
 507:nicebots-libs/twis/6-GC-if-2/nb-usitwisl-if2.c ****                 // Overrun
 508:nicebots-libs/twis/6-GC-if-2/nb-usitwisl-if2.c ****                 // Drop data
 509:nicebots-libs/twis/6-GC-if-2/nb-usitwisl-if2.c ****             }
 510:nicebots-libs/twis/6-GC-if-2/nb-usitwisl-if2.c ****             // Next USI_SLAVE_REQUEST_DATA
 511:nicebots-libs/twis/6-GC-if-2/nb-usitwisl-if2.c ****             overflowState = USI_SLAVE_REQUEST_DATA;
 512:nicebots-libs/twis/6-GC-if-2/nb-usitwisl-if2.c ****             SET_USI_TO_SEND_ACK();
 513:nicebots-libs/twis/6-GC-if-2/nb-usitwisl-if2.c ****             break;
 514:nicebots-libs/twis/6-GC-if-2/nb-usitwisl-if2.c ****         }
 515:nicebots-libs/twis/6-GC-if-2/nb-usitwisl-if2.c ****     }
 516:nicebots-libs/twis/6-GC-if-2/nb-usitwisl-if2.c **** 
 517:nicebots-libs/twis/6-GC-if-2/nb-usitwisl-if2.c ****     USISR |= (1 << USIOIF); /* Reset the USI overflow flag in USISR register to prepare for new int
 303               		.loc 1 517 5 view .LVU95
 304               		.loc 1 517 11 is_stmt 0 view .LVU96
 305 0016 769A      		sbi 0xe,6
 306               	/* epilogue start */
 518:nicebots-libs/twis/6-GC-if-2/nb-usitwisl-if2.c **** }
 307               		.loc 1 518 1 view .LVU97
 308 0018 0895      		ret
 309               	.L23:
 310 001a 8430      		cpi r24,lo8(4)
 311 001c 01F4      		brne .+2
 312 001e 00C0      		rjmp .L27
 313 0020 00F4      		brsh .+2
 314 0022 00C0      		rjmp .L28
 315 0024 8530      		cpi r24,lo8(5)
 316 0026 01F4      		brne .L26
 502:nicebots-libs/twis/6-GC-if-2/nb-usitwisl-if2.c ****                 rxBuf[rxHead] = USIDR;
 317               		.loc 1 502 13 is_stmt 1 view .LVU98
GAS LISTING C:\Users\casanovg\AppData\Local\Temp\ccAecxKz.s 			page 16


 502:nicebots-libs/twis/6-GC-if-2/nb-usitwisl-if2.c ****                 rxBuf[rxHead] = USIDR;
 318               		.loc 1 502 25 is_stmt 0 view .LVU99
 319 0028 8091 0000 		lds r24,rxCount
 502:nicebots-libs/twis/6-GC-if-2/nb-usitwisl-if2.c ****                 rxBuf[rxHead] = USIDR;
 320               		.loc 1 502 16 view .LVU100
 321 002c 8031      		cpi r24,lo8(16)
 322 002e 00F4      		brsh .L37
 503:nicebots-libs/twis/6-GC-if-2/nb-usitwisl-if2.c ****                 rxHead = (rxHead + 1) & TWI_RX_BUFFER_MASK;
 323               		.loc 1 503 17 is_stmt 1 view .LVU101
 503:nicebots-libs/twis/6-GC-if-2/nb-usitwisl-if2.c ****                 rxHead = (rxHead + 1) & TWI_RX_BUFFER_MASK;
 324               		.loc 1 503 22 is_stmt 0 view .LVU102
 325 0030 E091 0000 		lds r30,rxHead
 503:nicebots-libs/twis/6-GC-if-2/nb-usitwisl-if2.c ****                 rxHead = (rxHead + 1) & TWI_RX_BUFFER_MASK;
 326               		.loc 1 503 33 view .LVU103
 327 0034 8FB1      		in r24,0xf
 503:nicebots-libs/twis/6-GC-if-2/nb-usitwisl-if2.c ****                 rxHead = (rxHead + 1) & TWI_RX_BUFFER_MASK;
 328               		.loc 1 503 22 view .LVU104
 329 0036 F0E0      		ldi r31,0
 503:nicebots-libs/twis/6-GC-if-2/nb-usitwisl-if2.c ****                 rxHead = (rxHead + 1) & TWI_RX_BUFFER_MASK;
 330               		.loc 1 503 31 view .LVU105
 331 0038 E050      		subi r30,lo8(-(rxBuf))
 332 003a F040      		sbci r31,hi8(-(rxBuf))
 333 003c 8083      		st Z,r24
 504:nicebots-libs/twis/6-GC-if-2/nb-usitwisl-if2.c ****                 rxCount++;
 334               		.loc 1 504 17 is_stmt 1 view .LVU106
 504:nicebots-libs/twis/6-GC-if-2/nb-usitwisl-if2.c ****                 rxCount++;
 335               		.loc 1 504 39 is_stmt 0 view .LVU107
 336 003e 8091 0000 		lds r24,rxHead
 504:nicebots-libs/twis/6-GC-if-2/nb-usitwisl-if2.c ****                 rxCount++;
 337               		.loc 1 504 34 view .LVU108
 338 0042 8F5F      		subi r24,lo8(-(1))
 504:nicebots-libs/twis/6-GC-if-2/nb-usitwisl-if2.c ****                 rxCount++;
 339               		.loc 1 504 39 view .LVU109
 340 0044 8F70      		andi r24,lo8(15)
 504:nicebots-libs/twis/6-GC-if-2/nb-usitwisl-if2.c ****                 rxCount++;
 341               		.loc 1 504 24 view .LVU110
 342 0046 8093 0000 		sts rxHead,r24
 505:nicebots-libs/twis/6-GC-if-2/nb-usitwisl-if2.c ****             } else {
 343               		.loc 1 505 17 is_stmt 1 view .LVU111
 505:nicebots-libs/twis/6-GC-if-2/nb-usitwisl-if2.c ****             } else {
 344               		.loc 1 505 24 is_stmt 0 view .LVU112
 345 004a 8091 0000 		lds r24,rxCount
 346 004e 8F5F      		subi r24,lo8(-(1))
 347 0050 8093 0000 		sts rxCount,r24
 348               	.L37:
 509:nicebots-libs/twis/6-GC-if-2/nb-usitwisl-if2.c ****             // Next USI_SLAVE_REQUEST_DATA
 349               		.loc 1 509 13 is_stmt 1 view .LVU113
 511:nicebots-libs/twis/6-GC-if-2/nb-usitwisl-if2.c ****             SET_USI_TO_SEND_ACK();
 350               		.loc 1 511 13 view .LVU114
 511:nicebots-libs/twis/6-GC-if-2/nb-usitwisl-if2.c ****             SET_USI_TO_SEND_ACK();
 351               		.loc 1 511 27 is_stmt 0 view .LVU115
 352 0054 84E0      		ldi r24,lo8(4)
 353 0056 00C0      		rjmp .L58
 354               	.L24:
 437:nicebots-libs/twis/6-GC-if-2/nb-usitwisl-if2.c ****                 if (USIDR & 0x01) {             /* If 1: Slave sends data to master */
 355               		.loc 1 437 13 is_stmt 1 view .LVU116
 437:nicebots-libs/twis/6-GC-if-2/nb-usitwisl-if2.c ****                 if (USIDR & 0x01) {             /* If 1: Slave sends data to master */
GAS LISTING C:\Users\casanovg\AppData\Local\Temp\ccAecxKz.s 			page 17


 356               		.loc 1 437 19 is_stmt 0 view .LVU117
 357 0058 8FB1      		in r24,0xf
 437:nicebots-libs/twis/6-GC-if-2/nb-usitwisl-if2.c ****                 if (USIDR & 0x01) {             /* If 1: Slave sends data to master */
 358               		.loc 1 437 31 view .LVU118
 359 005a 8695      		lsr r24
 437:nicebots-libs/twis/6-GC-if-2/nb-usitwisl-if2.c ****                 if (USIDR & 0x01) {             /* If 1: Slave sends data to master */
 360               		.loc 1 437 16 view .LVU119
 361 005c 8F73      		andi r24,lo8(63)
 362 005e 9091 0000 		lds r25,slaveAddress
 363 0062 9813      		cpse r25,r24
 364 0064 00C0      		rjmp .L30
 438:nicebots-libs/twis/6-GC-if-2/nb-usitwisl-if2.c ****                     USI_REQUEST_CALLBACK();
 365               		.loc 1 438 17 is_stmt 1 view .LVU120
 438:nicebots-libs/twis/6-GC-if-2/nb-usitwisl-if2.c ****                     USI_REQUEST_CALLBACK();
 366               		.loc 1 438 20 is_stmt 0 view .LVU121
 367 0066 789B      		sbis 0xf,0
 368 0068 00C0      		rjmp .L37
 439:nicebots-libs/twis/6-GC-if-2/nb-usitwisl-if2.c ****                     overflowState = USI_SLAVE_SEND_DATA;
 369               		.loc 1 439 21 is_stmt 1 view .LVU122
 370 006a E091 0000 		lds r30,Usi_onReceivePtr
 371 006e F091 0000 		lds r31,Usi_onReceivePtr+1
 372 0072 3097      		sbiw r30,0
 373 0074 01F0      		breq .L32
 439:nicebots-libs/twis/6-GC-if-2/nb-usitwisl-if2.c ****                     overflowState = USI_SLAVE_SEND_DATA;
 374               		.loc 1 439 21 view .LVU123
 375               	.LBB10:
 376               	.LBI10:
 351:nicebots-libs/twis/6-GC-if-2/nb-usitwisl-if2.c ****     return rxCount;
 377               		.loc 1 351 9 view .LVU124
 378               	.LBB11:
 352:nicebots-libs/twis/6-GC-if-2/nb-usitwisl-if2.c **** }
 379               		.loc 1 352 5 view .LVU125
 352:nicebots-libs/twis/6-GC-if-2/nb-usitwisl-if2.c **** }
 380               		.loc 1 352 12 is_stmt 0 view .LVU126
 381 0076 8091 0000 		lds r24,rxCount
 382               	.LBE11:
 383               	.LBE10:
 439:nicebots-libs/twis/6-GC-if-2/nb-usitwisl-if2.c ****                     overflowState = USI_SLAVE_SEND_DATA;
 384               		.loc 1 439 21 view .LVU127
 385 007a 8823      		tst r24
 386 007c 01F0      		breq .L32
 439:nicebots-libs/twis/6-GC-if-2/nb-usitwisl-if2.c ****                     overflowState = USI_SLAVE_SEND_DATA;
 387               		.loc 1 439 21 is_stmt 1 discriminator 3 view .LVU128
 388               	.LBB12:
 389               	.LBI12:
 351:nicebots-libs/twis/6-GC-if-2/nb-usitwisl-if2.c ****     return rxCount;
 390               		.loc 1 351 9 discriminator 3 view .LVU129
 391               	.LBB13:
 352:nicebots-libs/twis/6-GC-if-2/nb-usitwisl-if2.c **** }
 392               		.loc 1 352 5 discriminator 3 view .LVU130
 352:nicebots-libs/twis/6-GC-if-2/nb-usitwisl-if2.c **** }
 393               		.loc 1 352 12 is_stmt 0 discriminator 3 view .LVU131
 394 007e 8091 0000 		lds r24,rxCount
 395               	.LBE13:
 396               	.LBE12:
 439:nicebots-libs/twis/6-GC-if-2/nb-usitwisl-if2.c ****                     overflowState = USI_SLAVE_SEND_DATA;
 397               		.loc 1 439 21 discriminator 3 view .LVU132
GAS LISTING C:\Users\casanovg\AppData\Local\Temp\ccAecxKz.s 			page 18


 398 0082 0995      		icall
 399               	.LVL6:
 400               	.L32:
 439:nicebots-libs/twis/6-GC-if-2/nb-usitwisl-if2.c ****                     overflowState = USI_SLAVE_SEND_DATA;
 401               		.loc 1 439 21 is_stmt 1 discriminator 5 view .LVU133
 439:nicebots-libs/twis/6-GC-if-2/nb-usitwisl-if2.c ****                     overflowState = USI_SLAVE_SEND_DATA;
 402               		.loc 1 439 21 discriminator 5 view .LVU134
 403 0084 E091 0000 		lds r30,Usi_onRequestPtr
 404 0088 F091 0000 		lds r31,Usi_onRequestPtr+1
 405 008c 3097      		sbiw r30,0
 406 008e 01F0      		breq .L33
 439:nicebots-libs/twis/6-GC-if-2/nb-usitwisl-if2.c ****                     overflowState = USI_SLAVE_SEND_DATA;
 407               		.loc 1 439 21 discriminator 6 view .LVU135
 408 0090 0995      		icall
 409               	.LVL7:
 410               	.L33:
 439:nicebots-libs/twis/6-GC-if-2/nb-usitwisl-if2.c ****                     overflowState = USI_SLAVE_SEND_DATA;
 411               		.loc 1 439 43 discriminator 8 view .LVU136
 440:nicebots-libs/twis/6-GC-if-2/nb-usitwisl-if2.c ****                 } else {                        /* If 1: Slave receives data from master */
 412               		.loc 1 440 21 discriminator 8 view .LVU137
 440:nicebots-libs/twis/6-GC-if-2/nb-usitwisl-if2.c ****                 } else {                        /* If 1: Slave receives data from master */
 413               		.loc 1 440 35 is_stmt 0 discriminator 8 view .LVU138
 414 0092 81E0      		ldi r24,lo8(1)
 415               	.L58:
 511:nicebots-libs/twis/6-GC-if-2/nb-usitwisl-if2.c ****             SET_USI_TO_SEND_ACK();
 416               		.loc 1 511 27 view .LVU139
 417 0094 8093 0000 		sts overflowState,r24
 512:nicebots-libs/twis/6-GC-if-2/nb-usitwisl-if2.c ****             break;
 418               		.loc 1 512 13 is_stmt 1 view .LVU140
 419 0098 1FB8      		out 0xf,__zero_reg__
 512:nicebots-libs/twis/6-GC-if-2/nb-usitwisl-if2.c ****             break;
 420               		.loc 1 512 13 view .LVU141
 421 009a B89A      		sbi 0x17,0
 422 009c 00C0      		rjmp .L56
 423               	.L30:
 447:nicebots-libs/twis/6-GC-if-2/nb-usitwisl-if2.c ****             }
 424               		.loc 1 447 17 view .LVU142
 425 009e 88EA      		ldi r24,lo8(-88)
 426 00a0 8DB9      		out 0xd,r24
 447:nicebots-libs/twis/6-GC-if-2/nb-usitwisl-if2.c ****             }
 427               		.loc 1 447 17 view .LVU143
 428               	.L59:
 494:nicebots-libs/twis/6-GC-if-2/nb-usitwisl-if2.c ****             break;
 429               		.loc 1 494 13 view .LVU144
 430 00a2 80E7      		ldi r24,lo8(112)
 431               	.L55:
 512:nicebots-libs/twis/6-GC-if-2/nb-usitwisl-if2.c ****             break;
 432               		.loc 1 512 13 is_stmt 0 view .LVU145
 433 00a4 8EB9      		out 0xe,r24
 512:nicebots-libs/twis/6-GC-if-2/nb-usitwisl-if2.c ****             break;
 434               		.loc 1 512 34 is_stmt 1 view .LVU146
 513:nicebots-libs/twis/6-GC-if-2/nb-usitwisl-if2.c ****         }
 435               		.loc 1 513 13 view .LVU147
 436 00a6 00C0      		rjmp .L26
 437               	.L28:
 454:nicebots-libs/twis/6-GC-if-2/nb-usitwisl-if2.c ****                 // if NACK, the master does not want more data
 438               		.loc 1 454 13 view .LVU148
GAS LISTING C:\Users\casanovg\AppData\Local\Temp\ccAecxKz.s 			page 19


 454:nicebots-libs/twis/6-GC-if-2/nb-usitwisl-if2.c ****                 // if NACK, the master does not want more data
 439               		.loc 1 454 17 is_stmt 0 view .LVU149
 440 00a8 8FB1      		in r24,0xf
 454:nicebots-libs/twis/6-GC-if-2/nb-usitwisl-if2.c ****                 // if NACK, the master does not want more data
 441               		.loc 1 454 16 view .LVU150
 442 00aa 8823      		tst r24
 443 00ac 01F0      		breq .L25
 444               	.L57:
 473:nicebots-libs/twis/6-GC-if-2/nb-usitwisl-if2.c ****                 SET_USI_TO_TWI_START_CONDITION_MODE();
 445               		.loc 1 473 38 is_stmt 1 view .LVU151
 474:nicebots-libs/twis/6-GC-if-2/nb-usitwisl-if2.c ****                 return;
 446               		.loc 1 474 17 view .LVU152
 447 00ae 88EA      		ldi r24,lo8(-88)
 448 00b0 8DB9      		out 0xd,r24
 474:nicebots-libs/twis/6-GC-if-2/nb-usitwisl-if2.c ****                 return;
 449               		.loc 1 474 17 view .LVU153
 450 00b2 80E7      		ldi r24,lo8(112)
 451 00b4 8EB9      		out 0xe,r24
 474:nicebots-libs/twis/6-GC-if-2/nb-usitwisl-if2.c ****                 return;
 452               		.loc 1 474 54 view .LVU154
 475:nicebots-libs/twis/6-GC-if-2/nb-usitwisl-if2.c ****             }
 453               		.loc 1 475 17 view .LVU155
 454 00b6 0895      		ret
 455               	.L25:
 467:nicebots-libs/twis/6-GC-if-2/nb-usitwisl-if2.c ****                 USIDR = txBuf[txTail];
 456               		.loc 1 467 13 view .LVU156
 467:nicebots-libs/twis/6-GC-if-2/nb-usitwisl-if2.c ****                 USIDR = txBuf[txTail];
 457               		.loc 1 467 17 is_stmt 0 view .LVU157
 458 00b8 8091 0000 		lds r24,txCount
 467:nicebots-libs/twis/6-GC-if-2/nb-usitwisl-if2.c ****                 USIDR = txBuf[txTail];
 459               		.loc 1 467 16 view .LVU158
 460 00bc 8823      		tst r24
 461 00be 01F0      		breq .L36
 468:nicebots-libs/twis/6-GC-if-2/nb-usitwisl-if2.c ****                 txTail = (txTail + 1) & TWI_TX_BUFFER_MASK;
 462               		.loc 1 468 17 is_stmt 1 view .LVU159
 468:nicebots-libs/twis/6-GC-if-2/nb-usitwisl-if2.c ****                 txTail = (txTail + 1) & TWI_TX_BUFFER_MASK;
 463               		.loc 1 468 30 is_stmt 0 view .LVU160
 464 00c0 E091 0000 		lds r30,txTail
 465 00c4 F0E0      		ldi r31,0
 466 00c6 E050      		subi r30,lo8(-(txBuf))
 467 00c8 F040      		sbci r31,hi8(-(txBuf))
 468 00ca 8081      		ld r24,Z
 468:nicebots-libs/twis/6-GC-if-2/nb-usitwisl-if2.c ****                 txTail = (txTail + 1) & TWI_TX_BUFFER_MASK;
 469               		.loc 1 468 23 view .LVU161
 470 00cc 8FB9      		out 0xf,r24
 469:nicebots-libs/twis/6-GC-if-2/nb-usitwisl-if2.c ****                 txCount--;
 471               		.loc 1 469 17 is_stmt 1 view .LVU162
 469:nicebots-libs/twis/6-GC-if-2/nb-usitwisl-if2.c ****                 txCount--;
 472               		.loc 1 469 39 is_stmt 0 view .LVU163
 473 00ce 8091 0000 		lds r24,txTail
 469:nicebots-libs/twis/6-GC-if-2/nb-usitwisl-if2.c ****                 txCount--;
 474               		.loc 1 469 34 view .LVU164
 475 00d2 8F5F      		subi r24,lo8(-(1))
 469:nicebots-libs/twis/6-GC-if-2/nb-usitwisl-if2.c ****                 txCount--;
 476               		.loc 1 469 39 view .LVU165
 477 00d4 8F70      		andi r24,lo8(15)
 469:nicebots-libs/twis/6-GC-if-2/nb-usitwisl-if2.c ****                 txCount--;
GAS LISTING C:\Users\casanovg\AppData\Local\Temp\ccAecxKz.s 			page 20


 478               		.loc 1 469 24 view .LVU166
 479 00d6 8093 0000 		sts txTail,r24
 470:nicebots-libs/twis/6-GC-if-2/nb-usitwisl-if2.c ****             } else {
 480               		.loc 1 470 17 is_stmt 1 view .LVU167
 470:nicebots-libs/twis/6-GC-if-2/nb-usitwisl-if2.c ****             } else {
 481               		.loc 1 470 24 is_stmt 0 view .LVU168
 482 00da 8091 0000 		lds r24,txCount
 483 00de 8150      		subi r24,lo8(-(-1))
 484 00e0 8093 0000 		sts txCount,r24
 477:nicebots-libs/twis/6-GC-if-2/nb-usitwisl-if2.c ****             SET_USI_TO_SEND_DATA();
 485               		.loc 1 477 13 is_stmt 1 view .LVU169
 477:nicebots-libs/twis/6-GC-if-2/nb-usitwisl-if2.c ****             SET_USI_TO_SEND_DATA();
 486               		.loc 1 477 27 is_stmt 0 view .LVU170
 487 00e4 82E0      		ldi r24,lo8(2)
 488 00e6 8093 0000 		sts overflowState,r24
 478:nicebots-libs/twis/6-GC-if-2/nb-usitwisl-if2.c ****             break;
 489               		.loc 1 478 13 is_stmt 1 view .LVU171
 490 00ea B89A      		sbi 0x17,0
 478:nicebots-libs/twis/6-GC-if-2/nb-usitwisl-if2.c ****             break;
 491               		.loc 1 478 13 view .LVU172
 492 00ec 00C0      		rjmp .L59
 493               	.L36:
 473:nicebots-libs/twis/6-GC-if-2/nb-usitwisl-if2.c ****                 SET_USI_TO_TWI_START_CONDITION_MODE();
 494               		.loc 1 473 17 view .LVU173
 495 00ee B898      		cbi 0x17,0
 473:nicebots-libs/twis/6-GC-if-2/nb-usitwisl-if2.c ****                 SET_USI_TO_TWI_START_CONDITION_MODE();
 496               		.loc 1 473 17 view .LVU174
 497 00f0 1FB8      		out 0xf,__zero_reg__
 473:nicebots-libs/twis/6-GC-if-2/nb-usitwisl-if2.c ****                 SET_USI_TO_TWI_START_CONDITION_MODE();
 498               		.loc 1 473 17 view .LVU175
 499 00f2 8EE7      		ldi r24,lo8(126)
 500 00f4 8EB9      		out 0xe,r24
 501 00f6 00C0      		rjmp .L57
 502               	.L22:
 485:nicebots-libs/twis/6-GC-if-2/nb-usitwisl-if2.c ****             SET_USI_TO_READ_ACK();
 503               		.loc 1 485 13 view .LVU176
 485:nicebots-libs/twis/6-GC-if-2/nb-usitwisl-if2.c ****             SET_USI_TO_READ_ACK();
 504               		.loc 1 485 27 is_stmt 0 view .LVU177
 505 00f8 83E0      		ldi r24,lo8(3)
 506 00fa 8093 0000 		sts overflowState,r24
 486:nicebots-libs/twis/6-GC-if-2/nb-usitwisl-if2.c ****             break;
 507               		.loc 1 486 13 is_stmt 1 view .LVU178
 508 00fe B898      		cbi 0x17,0
 486:nicebots-libs/twis/6-GC-if-2/nb-usitwisl-if2.c ****             break;
 509               		.loc 1 486 13 view .LVU179
 510 0100 1FB8      		out 0xf,__zero_reg__
 486:nicebots-libs/twis/6-GC-if-2/nb-usitwisl-if2.c ****             break;
 511               		.loc 1 486 13 view .LVU180
 512               	.L56:
 512:nicebots-libs/twis/6-GC-if-2/nb-usitwisl-if2.c ****             break;
 513               		.loc 1 512 13 view .LVU181
 514 0102 8EE7      		ldi r24,lo8(126)
 515 0104 00C0      		rjmp .L55
 516               	.L27:
 493:nicebots-libs/twis/6-GC-if-2/nb-usitwisl-if2.c ****             SET_USI_TO_READ_DATA();
 517               		.loc 1 493 13 view .LVU182
 493:nicebots-libs/twis/6-GC-if-2/nb-usitwisl-if2.c ****             SET_USI_TO_READ_DATA();
GAS LISTING C:\Users\casanovg\AppData\Local\Temp\ccAecxKz.s 			page 21


 518               		.loc 1 493 27 is_stmt 0 view .LVU183
 519 0106 85E0      		ldi r24,lo8(5)
 520 0108 8093 0000 		sts overflowState,r24
 494:nicebots-libs/twis/6-GC-if-2/nb-usitwisl-if2.c ****             break;
 521               		.loc 1 494 13 is_stmt 1 view .LVU184
 522 010c B898      		cbi 0x17,0
 523 010e 00C0      		rjmp .L59
 524               		.cfi_endproc
 525               	.LFE7:
 526               		.size	UsiOverflowHandler, .-UsiOverflowHandler
 527               		.section	.bss.txCount,"aw",@nobits
 528               		.type	txCount, @object
 529               		.size	txCount, 1
 530               	txCount:
 531 0000 00        		.zero	1
 532               		.section	.bss.txTail,"aw",@nobits
 533               		.type	txTail, @object
 534               		.size	txTail, 1
 535               	txTail:
 536 0000 00        		.zero	1
 537               		.section	.bss.txHead,"aw",@nobits
 538               		.type	txHead, @object
 539               		.size	txHead, 1
 540               	txHead:
 541 0000 00        		.zero	1
 542               		.section	.bss.txBuf,"aw",@nobits
 543               		.type	txBuf, @object
 544               		.size	txBuf, 16
 545               	txBuf:
 546 0000 0000 0000 		.zero	16
 546      0000 0000 
 546      0000 0000 
 546      0000 0000 
 547               		.section	.bss.rxCount,"aw",@nobits
 548               		.type	rxCount, @object
 549               		.size	rxCount, 1
 550               	rxCount:
 551 0000 00        		.zero	1
 552               		.section	.bss.rxTail,"aw",@nobits
 553               		.type	rxTail, @object
 554               		.size	rxTail, 1
 555               	rxTail:
 556 0000 00        		.zero	1
 557               		.section	.bss.rxHead,"aw",@nobits
 558               		.type	rxHead, @object
 559               		.size	rxHead, 1
 560               	rxHead:
 561 0000 00        		.zero	1
 562               		.section	.bss.rxBuf,"aw",@nobits
 563               		.type	rxBuf, @object
 564               		.size	rxBuf, 16
 565               	rxBuf:
 566 0000 0000 0000 		.zero	16
 566      0000 0000 
 566      0000 0000 
 566      0000 0000 
 567               		.section	.bss.overflowState,"aw",@nobits
GAS LISTING C:\Users\casanovg\AppData\Local\Temp\ccAecxKz.s 			page 22


 568               		.type	overflowState, @object
 569               		.size	overflowState, 1
 570               	overflowState:
 571 0000 00        		.zero	1
 572               		.section	.bss.slaveAddress,"aw",@nobits
 573               		.type	slaveAddress, @object
 574               		.size	slaveAddress, 1
 575               	slaveAddress:
 576 0000 00        		.zero	1
 577               		.comm	Usi_onReceivePtr,2,1
 578               		.comm	Usi_onRequestPtr,2,1
 579               		.text
 580               	.Letext0:
 581               		.file 2 "nicebots-libs/twis/6-GC-if-2/nb-usitwisl-if2.h"
 582               		.file 3 "c:\\winavr-20100110\\avr\\include\\stdint.h"
 583               		.section	.debug_info,"",@progbits
 584               	.Ldebug_info0:
 585 0000 F002 0000 		.long	0x2f0
 586 0004 0400      		.word	0x4
 587 0006 0000 0000 		.long	.Ldebug_abbrev0
 588 000a 04        		.byte	0x4
 589 000b 01        		.uleb128 0x1
 590 000c 0000 0000 		.long	.LASF34
 591 0010 0C        		.byte	0xc
 592 0011 0000 0000 		.long	.LASF35
 593 0015 0000 0000 		.long	.LASF36
 594 0019 0000 0000 		.long	.Ldebug_ranges0+0
 595 001d 0000 0000 		.long	0
 596 0021 0000 0000 		.long	.Ldebug_line0
 597 0025 02        		.uleb128 0x2
 598 0026 01        		.byte	0x1
 599 0027 06        		.byte	0x6
 600 0028 0000 0000 		.long	.LASF0
 601 002c 03        		.uleb128 0x3
 602 002d 0000 0000 		.long	.LASF15
 603 0031 03        		.byte	0x3
 604 0032 7E        		.byte	0x7e
 605 0033 16        		.byte	0x16
 606 0034 3D00 0000 		.long	0x3d
 607 0038 04        		.uleb128 0x4
 608 0039 2C00 0000 		.long	0x2c
 609 003d 02        		.uleb128 0x2
 610 003e 01        		.byte	0x1
 611 003f 08        		.byte	0x8
 612 0040 0000 0000 		.long	.LASF1
 613 0044 05        		.uleb128 0x5
 614 0045 02        		.byte	0x2
 615 0046 05        		.byte	0x5
 616 0047 696E 7400 		.string	"int"
 617 004b 02        		.uleb128 0x2
 618 004c 02        		.byte	0x2
 619 004d 07        		.byte	0x7
 620 004e 0000 0000 		.long	.LASF2
 621 0052 02        		.uleb128 0x2
 622 0053 04        		.byte	0x4
 623 0054 05        		.byte	0x5
 624 0055 0000 0000 		.long	.LASF3
GAS LISTING C:\Users\casanovg\AppData\Local\Temp\ccAecxKz.s 			page 23


 625 0059 02        		.uleb128 0x2
 626 005a 04        		.byte	0x4
 627 005b 07        		.byte	0x7
 628 005c 0000 0000 		.long	.LASF4
 629 0060 02        		.uleb128 0x2
 630 0061 08        		.byte	0x8
 631 0062 05        		.byte	0x5
 632 0063 0000 0000 		.long	.LASF5
 633 0067 02        		.uleb128 0x2
 634 0068 08        		.byte	0x8
 635 0069 07        		.byte	0x7
 636 006a 0000 0000 		.long	.LASF6
 637 006e 06        		.uleb128 0x6
 638 006f 07        		.uleb128 0x7
 639 0070 0000 0000 		.long	.LASF7
 640 0074 02        		.byte	0x2
 641 0075 18        		.byte	0x18
 642 0076 08        		.byte	0x8
 643 0077 8100 0000 		.long	0x81
 644 007b 05        		.uleb128 0x5
 645 007c 03        		.byte	0x3
 646 007d 0000 0000 		.long	Usi_onRequestPtr
 647 0081 08        		.uleb128 0x8
 648 0082 02        		.byte	0x2
 649 0083 6E00 0000 		.long	0x6e
 650 0087 09        		.uleb128 0x9
 651 0088 9200 0000 		.long	0x92
 652 008c 0A        		.uleb128 0xa
 653 008d 2C00 0000 		.long	0x2c
 654 0091 00        		.byte	0
 655 0092 07        		.uleb128 0x7
 656 0093 0000 0000 		.long	.LASF8
 657 0097 02        		.byte	0x2
 658 0098 19        		.byte	0x19
 659 0099 08        		.byte	0x8
 660 009a A400 0000 		.long	0xa4
 661 009e 05        		.uleb128 0x5
 662 009f 03        		.byte	0x3
 663 00a0 0000 0000 		.long	Usi_onReceivePtr
 664 00a4 08        		.uleb128 0x8
 665 00a5 02        		.byte	0x2
 666 00a6 8700 0000 		.long	0x87
 667 00aa 0B        		.uleb128 0xb
 668 00ab 07        		.byte	0x7
 669 00ac 01        		.byte	0x1
 670 00ad 3D00 0000 		.long	0x3d
 671 00b1 01        		.byte	0x1
 672 00b2 EF        		.byte	0xef
 673 00b3 0E        		.byte	0xe
 674 00b4 DD00 0000 		.long	0xdd
 675 00b8 0C        		.uleb128 0xc
 676 00b9 0000 0000 		.long	.LASF9
 677 00bd 00        		.byte	0
 678 00be 0C        		.uleb128 0xc
 679 00bf 0000 0000 		.long	.LASF10
 680 00c3 01        		.byte	0x1
 681 00c4 0C        		.uleb128 0xc
GAS LISTING C:\Users\casanovg\AppData\Local\Temp\ccAecxKz.s 			page 24


 682 00c5 0000 0000 		.long	.LASF11
 683 00c9 02        		.byte	0x2
 684 00ca 0C        		.uleb128 0xc
 685 00cb 0000 0000 		.long	.LASF12
 686 00cf 03        		.byte	0x3
 687 00d0 0C        		.uleb128 0xc
 688 00d1 0000 0000 		.long	.LASF13
 689 00d5 04        		.byte	0x4
 690 00d6 0C        		.uleb128 0xc
 691 00d7 0000 0000 		.long	.LASF14
 692 00db 05        		.byte	0x5
 693 00dc 00        		.byte	0
 694 00dd 03        		.uleb128 0x3
 695 00de 0000 0000 		.long	.LASF16
 696 00e2 01        		.byte	0x1
 697 00e3 F6        		.byte	0xf6
 698 00e4 03        		.byte	0x3
 699 00e5 AA00 0000 		.long	0xaa
 700 00e9 04        		.uleb128 0x4
 701 00ea DD00 0000 		.long	0xdd
 702 00ee 0D        		.uleb128 0xd
 703 00ef 0000 0000 		.long	.LASF17
 704 00f3 01        		.byte	0x1
 705 00f4 F9        		.byte	0xf9
 706 00f5 10        		.byte	0x10
 707 00f6 2C00 0000 		.long	0x2c
 708 00fa 05        		.uleb128 0x5
 709 00fb 03        		.byte	0x3
 710 00fc 0000 0000 		.long	slaveAddress
 711 0100 0D        		.uleb128 0xd
 712 0101 0000 0000 		.long	.LASF18
 713 0105 01        		.byte	0x1
 714 0106 FA        		.byte	0xfa
 715 0107 21        		.byte	0x21
 716 0108 E900 0000 		.long	0xe9
 717 010c 05        		.uleb128 0x5
 718 010d 03        		.byte	0x3
 719 010e 0000 0000 		.long	overflowState
 720 0112 0E        		.uleb128 0xe
 721 0113 2C00 0000 		.long	0x2c
 722 0117 2201 0000 		.long	0x122
 723 011b 0F        		.uleb128 0xf
 724 011c 4B00 0000 		.long	0x4b
 725 0120 0F        		.byte	0xf
 726 0121 00        		.byte	0
 727 0122 0D        		.uleb128 0xd
 728 0123 0000 0000 		.long	.LASF19
 729 0127 01        		.byte	0x1
 730 0128 FC        		.byte	0xfc
 731 0129 10        		.byte	0x10
 732 012a 1201 0000 		.long	0x112
 733 012e 05        		.uleb128 0x5
 734 012f 03        		.byte	0x3
 735 0130 0000 0000 		.long	rxBuf
 736 0134 0D        		.uleb128 0xd
 737 0135 0000 0000 		.long	.LASF20
 738 0139 01        		.byte	0x1
GAS LISTING C:\Users\casanovg\AppData\Local\Temp\ccAecxKz.s 			page 25


 739 013a FD        		.byte	0xfd
 740 013b 19        		.byte	0x19
 741 013c 3800 0000 		.long	0x38
 742 0140 05        		.uleb128 0x5
 743 0141 03        		.byte	0x3
 744 0142 0000 0000 		.long	rxHead
 745 0146 0D        		.uleb128 0xd
 746 0147 0000 0000 		.long	.LASF21
 747 014b 01        		.byte	0x1
 748 014c FE        		.byte	0xfe
 749 014d 19        		.byte	0x19
 750 014e 3800 0000 		.long	0x38
 751 0152 05        		.uleb128 0x5
 752 0153 03        		.byte	0x3
 753 0154 0000 0000 		.long	rxTail
 754 0158 0D        		.uleb128 0xd
 755 0159 0000 0000 		.long	.LASF22
 756 015d 01        		.byte	0x1
 757 015e FF        		.byte	0xff
 758 015f 19        		.byte	0x19
 759 0160 3800 0000 		.long	0x38
 760 0164 05        		.uleb128 0x5
 761 0165 03        		.byte	0x3
 762 0166 0000 0000 		.long	rxCount
 763 016a 10        		.uleb128 0x10
 764 016b 0000 0000 		.long	.LASF23
 765 016f 01        		.byte	0x1
 766 0170 0101      		.word	0x101
 767 0172 10        		.byte	0x10
 768 0173 1201 0000 		.long	0x112
 769 0177 05        		.uleb128 0x5
 770 0178 03        		.byte	0x3
 771 0179 0000 0000 		.long	txBuf
 772 017d 10        		.uleb128 0x10
 773 017e 0000 0000 		.long	.LASF24
 774 0182 01        		.byte	0x1
 775 0183 0201      		.word	0x102
 776 0185 19        		.byte	0x19
 777 0186 3800 0000 		.long	0x38
 778 018a 05        		.uleb128 0x5
 779 018b 03        		.byte	0x3
 780 018c 0000 0000 		.long	txHead
 781 0190 10        		.uleb128 0x10
 782 0191 0000 0000 		.long	.LASF25
 783 0195 01        		.byte	0x1
 784 0196 0301      		.word	0x103
 785 0198 19        		.byte	0x19
 786 0199 3800 0000 		.long	0x38
 787 019d 05        		.uleb128 0x5
 788 019e 03        		.byte	0x3
 789 019f 0000 0000 		.long	txTail
 790 01a3 10        		.uleb128 0x10
 791 01a4 0000 0000 		.long	.LASF26
 792 01a8 01        		.byte	0x1
 793 01a9 0401      		.word	0x104
 794 01ab 19        		.byte	0x19
 795 01ac 3800 0000 		.long	0x38
GAS LISTING C:\Users\casanovg\AppData\Local\Temp\ccAecxKz.s 			page 26


 796 01b0 05        		.uleb128 0x5
 797 01b1 03        		.byte	0x3
 798 01b2 0000 0000 		.long	txCount
 799 01b6 11        		.uleb128 0x11
 800 01b7 0000 0000 		.long	.LASF28
 801 01bb 01        		.byte	0x1
 802 01bc AC01      		.word	0x1ac
 803 01be 06        		.byte	0x6
 804 01bf 0000 0000 		.long	.LFB7
 805 01c3 1001 0000 		.long	.LFE7-.LFB7
 806 01c7 01        		.uleb128 0x1
 807 01c8 9C        		.byte	0x9c
 808 01c9 FA01 0000 		.long	0x1fa
 809 01cd 12        		.uleb128 0x12
 810 01ce 0D02 0000 		.long	0x20d
 811 01d2 0000 0000 		.long	.LBI10
 812 01d6 01        		.byte	.LVU124
 813 01d7 0000 0000 		.long	.LBB10
 814 01db 0400 0000 		.long	.LBE10-.LBB10
 815 01df 01        		.byte	0x1
 816 01e0 B701      		.word	0x1b7
 817 01e2 15        		.byte	0x15
 818 01e3 12        		.uleb128 0x12
 819 01e4 0D02 0000 		.long	0x20d
 820 01e8 0000 0000 		.long	.LBI12
 821 01ec 01        		.byte	.LVU129
 822 01ed 0000 0000 		.long	.LBB12
 823 01f1 0400 0000 		.long	.LBE12-.LBB12
 824 01f5 01        		.byte	0x1
 825 01f6 B701      		.word	0x1b7
 826 01f8 15        		.byte	0x15
 827 01f9 00        		.byte	0
 828 01fa 13        		.uleb128 0x13
 829 01fb 0000 0000 		.long	.LASF37
 830 01ff 01        		.byte	0x1
 831 0200 6501      		.word	0x165
 832 0202 06        		.byte	0x6
 833 0203 0000 0000 		.long	.LFB6
 834 0207 2200 0000 		.long	.LFE6-.LFB6
 835 020b 01        		.uleb128 0x1
 836 020c 9C        		.byte	0x9c
 837 020d 14        		.uleb128 0x14
 838 020e 0000 0000 		.long	.LASF38
 839 0212 01        		.byte	0x1
 840 0213 5F01      		.word	0x15f
 841 0215 09        		.byte	0x9
 842 0216 2C00 0000 		.long	0x2c
 843 021a 01        		.byte	0x1
 844 021b 15        		.uleb128 0x15
 845 021c 0000 0000 		.long	.LASF39
 846 0220 01        		.byte	0x1
 847 0221 4E01      		.word	0x14e
 848 0223 09        		.byte	0x9
 849 0224 2C00 0000 		.long	0x2c
 850 0228 0000 0000 		.long	.LFB4
 851 022c 2C00 0000 		.long	.LFE4-.LFB4
 852 0230 01        		.uleb128 0x1
GAS LISTING C:\Users\casanovg\AppData\Local\Temp\ccAecxKz.s 			page 27


 853 0231 9C        		.byte	0x9c
 854 0232 4C02 0000 		.long	0x24c
 855 0236 16        		.uleb128 0x16
 856 0237 0000 0000 		.long	.LASF27
 857 023b 01        		.byte	0x1
 858 023c 4F01      		.word	0x14f
 859 023e 0D        		.byte	0xd
 860 023f 2C00 0000 		.long	0x2c
 861 0243 0000 0000 		.long	.LLST2
 862 0247 0000 0000 		.long	.LVUS2
 863 024b 00        		.byte	0
 864 024c 17        		.uleb128 0x17
 865 024d 0000 0000 		.long	.LASF29
 866 0251 01        		.byte	0x1
 867 0252 4001      		.word	0x140
 868 0254 06        		.byte	0x6
 869 0255 0000 0000 		.long	.LFB3
 870 0259 2C00 0000 		.long	.LFE3-.LFB3
 871 025d 01        		.uleb128 0x1
 872 025e 9C        		.byte	0x9c
 873 025f 7902 0000 		.long	0x279
 874 0263 18        		.uleb128 0x18
 875 0264 0000 0000 		.long	.LASF32
 876 0268 01        		.byte	0x1
 877 0269 4001      		.word	0x140
 878 026b 21        		.byte	0x21
 879 026c 2C00 0000 		.long	0x2c
 880 0270 0000 0000 		.long	.LLST1
 881 0274 0000 0000 		.long	.LVUS1
 882 0278 00        		.byte	0
 883 0279 19        		.uleb128 0x19
 884 027a 0000 0000 		.long	.LASF40
 885 027e 01        		.byte	0x1
 886 027f 3A01      		.word	0x13a
 887 0281 06        		.byte	0x6
 888 0282 9002 0000 		.long	0x290
 889 0286 0000 0000 		.long	.LFB2
 890 028a 0E00 0000 		.long	.LFE2-.LFB2
 891 028e 01        		.uleb128 0x1
 892 028f 9C        		.byte	0x9c
 893 0290 02        		.uleb128 0x2
 894 0291 01        		.byte	0x1
 895 0292 02        		.byte	0x2
 896 0293 0000 0000 		.long	.LASF30
 897 0297 17        		.uleb128 0x17
 898 0298 0000 0000 		.long	.LASF31
 899 029c 01        		.byte	0x1
 900 029d 1301      		.word	0x113
 901 029f 06        		.byte	0x6
 902 02a0 0000 0000 		.long	.LFB1
 903 02a4 3200 0000 		.long	.LFE1-.LFB1
 904 02a8 01        		.uleb128 0x1
 905 02a9 9C        		.byte	0x9c
 906 02aa DA02 0000 		.long	0x2da
 907 02ae 18        		.uleb128 0x18
 908 02af 0000 0000 		.long	.LASF33
 909 02b3 01        		.byte	0x1
GAS LISTING C:\Users\casanovg\AppData\Local\Temp\ccAecxKz.s 			page 28


 910 02b4 1301      		.word	0x113
 911 02b6 1E        		.byte	0x1e
 912 02b7 2C00 0000 		.long	0x2c
 913 02bb 0000 0000 		.long	.LLST0
 914 02bf 0000 0000 		.long	.LVUS0
 915 02c3 12        		.uleb128 0x12
 916 02c4 DA02 0000 		.long	0x2da
 917 02c8 0000 0000 		.long	.LBI4
 918 02cc 02        		.byte	.LVU2
 919 02cd 0000 0000 		.long	.LBB4
 920 02d1 1800 0000 		.long	.LBE4-.LBB4
 921 02d5 01        		.byte	0x1
 922 02d6 1401      		.word	0x114
 923 02d8 05        		.byte	0x5
 924 02d9 00        		.byte	0
 925 02da 1A        		.uleb128 0x1a
 926 02db 0000 0000 		.long	.LASF41
 927 02df 01        		.byte	0x1
 928 02e0 0701      		.word	0x107
 929 02e2 0D        		.byte	0xd
 930 02e3 01        		.byte	0x1
 931 02e4 1B        		.uleb128 0x1b
 932 02e5 0D02 0000 		.long	0x20d
 933 02e9 0000 0000 		.long	.LFB5
 934 02ed 0600 0000 		.long	.LFE5-.LFB5
 935 02f1 01        		.uleb128 0x1
 936 02f2 9C        		.byte	0x9c
 937 02f3 00        		.byte	0
 938               		.section	.debug_abbrev,"",@progbits
 939               	.Ldebug_abbrev0:
 940 0000 01        		.uleb128 0x1
 941 0001 11        		.uleb128 0x11
 942 0002 01        		.byte	0x1
 943 0003 25        		.uleb128 0x25
 944 0004 0E        		.uleb128 0xe
 945 0005 13        		.uleb128 0x13
 946 0006 0B        		.uleb128 0xb
 947 0007 03        		.uleb128 0x3
 948 0008 0E        		.uleb128 0xe
 949 0009 1B        		.uleb128 0x1b
 950 000a 0E        		.uleb128 0xe
 951 000b 55        		.uleb128 0x55
 952 000c 17        		.uleb128 0x17
 953 000d 11        		.uleb128 0x11
 954 000e 01        		.uleb128 0x1
 955 000f 10        		.uleb128 0x10
 956 0010 17        		.uleb128 0x17
 957 0011 00        		.byte	0
 958 0012 00        		.byte	0
 959 0013 02        		.uleb128 0x2
 960 0014 24        		.uleb128 0x24
 961 0015 00        		.byte	0
 962 0016 0B        		.uleb128 0xb
 963 0017 0B        		.uleb128 0xb
 964 0018 3E        		.uleb128 0x3e
 965 0019 0B        		.uleb128 0xb
 966 001a 03        		.uleb128 0x3
GAS LISTING C:\Users\casanovg\AppData\Local\Temp\ccAecxKz.s 			page 29


 967 001b 0E        		.uleb128 0xe
 968 001c 00        		.byte	0
 969 001d 00        		.byte	0
 970 001e 03        		.uleb128 0x3
 971 001f 16        		.uleb128 0x16
 972 0020 00        		.byte	0
 973 0021 03        		.uleb128 0x3
 974 0022 0E        		.uleb128 0xe
 975 0023 3A        		.uleb128 0x3a
 976 0024 0B        		.uleb128 0xb
 977 0025 3B        		.uleb128 0x3b
 978 0026 0B        		.uleb128 0xb
 979 0027 39        		.uleb128 0x39
 980 0028 0B        		.uleb128 0xb
 981 0029 49        		.uleb128 0x49
 982 002a 13        		.uleb128 0x13
 983 002b 00        		.byte	0
 984 002c 00        		.byte	0
 985 002d 04        		.uleb128 0x4
 986 002e 35        		.uleb128 0x35
 987 002f 00        		.byte	0
 988 0030 49        		.uleb128 0x49
 989 0031 13        		.uleb128 0x13
 990 0032 00        		.byte	0
 991 0033 00        		.byte	0
 992 0034 05        		.uleb128 0x5
 993 0035 24        		.uleb128 0x24
 994 0036 00        		.byte	0
 995 0037 0B        		.uleb128 0xb
 996 0038 0B        		.uleb128 0xb
 997 0039 3E        		.uleb128 0x3e
 998 003a 0B        		.uleb128 0xb
 999 003b 03        		.uleb128 0x3
 1000 003c 08        		.uleb128 0x8
 1001 003d 00        		.byte	0
 1002 003e 00        		.byte	0
 1003 003f 06        		.uleb128 0x6
 1004 0040 15        		.uleb128 0x15
 1005 0041 00        		.byte	0
 1006 0042 27        		.uleb128 0x27
 1007 0043 19        		.uleb128 0x19
 1008 0044 00        		.byte	0
 1009 0045 00        		.byte	0
 1010 0046 07        		.uleb128 0x7
 1011 0047 34        		.uleb128 0x34
 1012 0048 00        		.byte	0
 1013 0049 03        		.uleb128 0x3
 1014 004a 0E        		.uleb128 0xe
 1015 004b 3A        		.uleb128 0x3a
 1016 004c 0B        		.uleb128 0xb
 1017 004d 3B        		.uleb128 0x3b
 1018 004e 0B        		.uleb128 0xb
 1019 004f 39        		.uleb128 0x39
 1020 0050 0B        		.uleb128 0xb
 1021 0051 49        		.uleb128 0x49
 1022 0052 13        		.uleb128 0x13
 1023 0053 3F        		.uleb128 0x3f
GAS LISTING C:\Users\casanovg\AppData\Local\Temp\ccAecxKz.s 			page 30


 1024 0054 19        		.uleb128 0x19
 1025 0055 02        		.uleb128 0x2
 1026 0056 18        		.uleb128 0x18
 1027 0057 00        		.byte	0
 1028 0058 00        		.byte	0
 1029 0059 08        		.uleb128 0x8
 1030 005a 0F        		.uleb128 0xf
 1031 005b 00        		.byte	0
 1032 005c 0B        		.uleb128 0xb
 1033 005d 0B        		.uleb128 0xb
 1034 005e 49        		.uleb128 0x49
 1035 005f 13        		.uleb128 0x13
 1036 0060 00        		.byte	0
 1037 0061 00        		.byte	0
 1038 0062 09        		.uleb128 0x9
 1039 0063 15        		.uleb128 0x15
 1040 0064 01        		.byte	0x1
 1041 0065 27        		.uleb128 0x27
 1042 0066 19        		.uleb128 0x19
 1043 0067 01        		.uleb128 0x1
 1044 0068 13        		.uleb128 0x13
 1045 0069 00        		.byte	0
 1046 006a 00        		.byte	0
 1047 006b 0A        		.uleb128 0xa
 1048 006c 05        		.uleb128 0x5
 1049 006d 00        		.byte	0
 1050 006e 49        		.uleb128 0x49
 1051 006f 13        		.uleb128 0x13
 1052 0070 00        		.byte	0
 1053 0071 00        		.byte	0
 1054 0072 0B        		.uleb128 0xb
 1055 0073 04        		.uleb128 0x4
 1056 0074 01        		.byte	0x1
 1057 0075 3E        		.uleb128 0x3e
 1058 0076 0B        		.uleb128 0xb
 1059 0077 0B        		.uleb128 0xb
 1060 0078 0B        		.uleb128 0xb
 1061 0079 49        		.uleb128 0x49
 1062 007a 13        		.uleb128 0x13
 1063 007b 3A        		.uleb128 0x3a
 1064 007c 0B        		.uleb128 0xb
 1065 007d 3B        		.uleb128 0x3b
 1066 007e 0B        		.uleb128 0xb
 1067 007f 39        		.uleb128 0x39
 1068 0080 0B        		.uleb128 0xb
 1069 0081 01        		.uleb128 0x1
 1070 0082 13        		.uleb128 0x13
 1071 0083 00        		.byte	0
 1072 0084 00        		.byte	0
 1073 0085 0C        		.uleb128 0xc
 1074 0086 28        		.uleb128 0x28
 1075 0087 00        		.byte	0
 1076 0088 03        		.uleb128 0x3
 1077 0089 0E        		.uleb128 0xe
 1078 008a 1C        		.uleb128 0x1c
 1079 008b 0B        		.uleb128 0xb
 1080 008c 00        		.byte	0
GAS LISTING C:\Users\casanovg\AppData\Local\Temp\ccAecxKz.s 			page 31


 1081 008d 00        		.byte	0
 1082 008e 0D        		.uleb128 0xd
 1083 008f 34        		.uleb128 0x34
 1084 0090 00        		.byte	0
 1085 0091 03        		.uleb128 0x3
 1086 0092 0E        		.uleb128 0xe
 1087 0093 3A        		.uleb128 0x3a
 1088 0094 0B        		.uleb128 0xb
 1089 0095 3B        		.uleb128 0x3b
 1090 0096 0B        		.uleb128 0xb
 1091 0097 39        		.uleb128 0x39
 1092 0098 0B        		.uleb128 0xb
 1093 0099 49        		.uleb128 0x49
 1094 009a 13        		.uleb128 0x13
 1095 009b 02        		.uleb128 0x2
 1096 009c 18        		.uleb128 0x18
 1097 009d 00        		.byte	0
 1098 009e 00        		.byte	0
 1099 009f 0E        		.uleb128 0xe
 1100 00a0 01        		.uleb128 0x1
 1101 00a1 01        		.byte	0x1
 1102 00a2 49        		.uleb128 0x49
 1103 00a3 13        		.uleb128 0x13
 1104 00a4 01        		.uleb128 0x1
 1105 00a5 13        		.uleb128 0x13
 1106 00a6 00        		.byte	0
 1107 00a7 00        		.byte	0
 1108 00a8 0F        		.uleb128 0xf
 1109 00a9 21        		.uleb128 0x21
 1110 00aa 00        		.byte	0
 1111 00ab 49        		.uleb128 0x49
 1112 00ac 13        		.uleb128 0x13
 1113 00ad 2F        		.uleb128 0x2f
 1114 00ae 0B        		.uleb128 0xb
 1115 00af 00        		.byte	0
 1116 00b0 00        		.byte	0
 1117 00b1 10        		.uleb128 0x10
 1118 00b2 34        		.uleb128 0x34
 1119 00b3 00        		.byte	0
 1120 00b4 03        		.uleb128 0x3
 1121 00b5 0E        		.uleb128 0xe
 1122 00b6 3A        		.uleb128 0x3a
 1123 00b7 0B        		.uleb128 0xb
 1124 00b8 3B        		.uleb128 0x3b
 1125 00b9 05        		.uleb128 0x5
 1126 00ba 39        		.uleb128 0x39
 1127 00bb 0B        		.uleb128 0xb
 1128 00bc 49        		.uleb128 0x49
 1129 00bd 13        		.uleb128 0x13
 1130 00be 02        		.uleb128 0x2
 1131 00bf 18        		.uleb128 0x18
 1132 00c0 00        		.byte	0
 1133 00c1 00        		.byte	0
 1134 00c2 11        		.uleb128 0x11
 1135 00c3 2E        		.uleb128 0x2e
 1136 00c4 01        		.byte	0x1
 1137 00c5 3F        		.uleb128 0x3f
GAS LISTING C:\Users\casanovg\AppData\Local\Temp\ccAecxKz.s 			page 32


 1138 00c6 19        		.uleb128 0x19
 1139 00c7 03        		.uleb128 0x3
 1140 00c8 0E        		.uleb128 0xe
 1141 00c9 3A        		.uleb128 0x3a
 1142 00ca 0B        		.uleb128 0xb
 1143 00cb 3B        		.uleb128 0x3b
 1144 00cc 05        		.uleb128 0x5
 1145 00cd 39        		.uleb128 0x39
 1146 00ce 0B        		.uleb128 0xb
 1147 00cf 27        		.uleb128 0x27
 1148 00d0 19        		.uleb128 0x19
 1149 00d1 11        		.uleb128 0x11
 1150 00d2 01        		.uleb128 0x1
 1151 00d3 12        		.uleb128 0x12
 1152 00d4 06        		.uleb128 0x6
 1153 00d5 40        		.uleb128 0x40
 1154 00d6 18        		.uleb128 0x18
 1155 00d7 9642      		.uleb128 0x2116
 1156 00d9 19        		.uleb128 0x19
 1157 00da 01        		.uleb128 0x1
 1158 00db 13        		.uleb128 0x13
 1159 00dc 00        		.byte	0
 1160 00dd 00        		.byte	0
 1161 00de 12        		.uleb128 0x12
 1162 00df 1D        		.uleb128 0x1d
 1163 00e0 00        		.byte	0
 1164 00e1 31        		.uleb128 0x31
 1165 00e2 13        		.uleb128 0x13
 1166 00e3 52        		.uleb128 0x52
 1167 00e4 01        		.uleb128 0x1
 1168 00e5 B842      		.uleb128 0x2138
 1169 00e7 0B        		.uleb128 0xb
 1170 00e8 11        		.uleb128 0x11
 1171 00e9 01        		.uleb128 0x1
 1172 00ea 12        		.uleb128 0x12
 1173 00eb 06        		.uleb128 0x6
 1174 00ec 58        		.uleb128 0x58
 1175 00ed 0B        		.uleb128 0xb
 1176 00ee 59        		.uleb128 0x59
 1177 00ef 05        		.uleb128 0x5
 1178 00f0 57        		.uleb128 0x57
 1179 00f1 0B        		.uleb128 0xb
 1180 00f2 00        		.byte	0
 1181 00f3 00        		.byte	0
 1182 00f4 13        		.uleb128 0x13
 1183 00f5 2E        		.uleb128 0x2e
 1184 00f6 00        		.byte	0
 1185 00f7 3F        		.uleb128 0x3f
 1186 00f8 19        		.uleb128 0x19
 1187 00f9 03        		.uleb128 0x3
 1188 00fa 0E        		.uleb128 0xe
 1189 00fb 3A        		.uleb128 0x3a
 1190 00fc 0B        		.uleb128 0xb
 1191 00fd 3B        		.uleb128 0x3b
 1192 00fe 05        		.uleb128 0x5
 1193 00ff 39        		.uleb128 0x39
 1194 0100 0B        		.uleb128 0xb
GAS LISTING C:\Users\casanovg\AppData\Local\Temp\ccAecxKz.s 			page 33


 1195 0101 27        		.uleb128 0x27
 1196 0102 19        		.uleb128 0x19
 1197 0103 11        		.uleb128 0x11
 1198 0104 01        		.uleb128 0x1
 1199 0105 12        		.uleb128 0x12
 1200 0106 06        		.uleb128 0x6
 1201 0107 40        		.uleb128 0x40
 1202 0108 18        		.uleb128 0x18
 1203 0109 9742      		.uleb128 0x2117
 1204 010b 19        		.uleb128 0x19
 1205 010c 00        		.byte	0
 1206 010d 00        		.byte	0
 1207 010e 14        		.uleb128 0x14
 1208 010f 2E        		.uleb128 0x2e
 1209 0110 00        		.byte	0
 1210 0111 3F        		.uleb128 0x3f
 1211 0112 19        		.uleb128 0x19
 1212 0113 03        		.uleb128 0x3
 1213 0114 0E        		.uleb128 0xe
 1214 0115 3A        		.uleb128 0x3a
 1215 0116 0B        		.uleb128 0xb
 1216 0117 3B        		.uleb128 0x3b
 1217 0118 05        		.uleb128 0x5
 1218 0119 39        		.uleb128 0x39
 1219 011a 0B        		.uleb128 0xb
 1220 011b 27        		.uleb128 0x27
 1221 011c 19        		.uleb128 0x19
 1222 011d 49        		.uleb128 0x49
 1223 011e 13        		.uleb128 0x13
 1224 011f 20        		.uleb128 0x20
 1225 0120 0B        		.uleb128 0xb
 1226 0121 00        		.byte	0
 1227 0122 00        		.byte	0
 1228 0123 15        		.uleb128 0x15
 1229 0124 2E        		.uleb128 0x2e
 1230 0125 01        		.byte	0x1
 1231 0126 3F        		.uleb128 0x3f
 1232 0127 19        		.uleb128 0x19
 1233 0128 03        		.uleb128 0x3
 1234 0129 0E        		.uleb128 0xe
 1235 012a 3A        		.uleb128 0x3a
 1236 012b 0B        		.uleb128 0xb
 1237 012c 3B        		.uleb128 0x3b
 1238 012d 05        		.uleb128 0x5
 1239 012e 39        		.uleb128 0x39
 1240 012f 0B        		.uleb128 0xb
 1241 0130 27        		.uleb128 0x27
 1242 0131 19        		.uleb128 0x19
 1243 0132 49        		.uleb128 0x49
 1244 0133 13        		.uleb128 0x13
 1245 0134 11        		.uleb128 0x11
 1246 0135 01        		.uleb128 0x1
 1247 0136 12        		.uleb128 0x12
 1248 0137 06        		.uleb128 0x6
 1249 0138 40        		.uleb128 0x40
 1250 0139 18        		.uleb128 0x18
 1251 013a 9742      		.uleb128 0x2117
GAS LISTING C:\Users\casanovg\AppData\Local\Temp\ccAecxKz.s 			page 34


 1252 013c 19        		.uleb128 0x19
 1253 013d 01        		.uleb128 0x1
 1254 013e 13        		.uleb128 0x13
 1255 013f 00        		.byte	0
 1256 0140 00        		.byte	0
 1257 0141 16        		.uleb128 0x16
 1258 0142 34        		.uleb128 0x34
 1259 0143 00        		.byte	0
 1260 0144 03        		.uleb128 0x3
 1261 0145 0E        		.uleb128 0xe
 1262 0146 3A        		.uleb128 0x3a
 1263 0147 0B        		.uleb128 0xb
 1264 0148 3B        		.uleb128 0x3b
 1265 0149 05        		.uleb128 0x5
 1266 014a 39        		.uleb128 0x39
 1267 014b 0B        		.uleb128 0xb
 1268 014c 49        		.uleb128 0x49
 1269 014d 13        		.uleb128 0x13
 1270 014e 02        		.uleb128 0x2
 1271 014f 17        		.uleb128 0x17
 1272 0150 B742      		.uleb128 0x2137
 1273 0152 17        		.uleb128 0x17
 1274 0153 00        		.byte	0
 1275 0154 00        		.byte	0
 1276 0155 17        		.uleb128 0x17
 1277 0156 2E        		.uleb128 0x2e
 1278 0157 01        		.byte	0x1
 1279 0158 3F        		.uleb128 0x3f
 1280 0159 19        		.uleb128 0x19
 1281 015a 03        		.uleb128 0x3
 1282 015b 0E        		.uleb128 0xe
 1283 015c 3A        		.uleb128 0x3a
 1284 015d 0B        		.uleb128 0xb
 1285 015e 3B        		.uleb128 0x3b
 1286 015f 05        		.uleb128 0x5
 1287 0160 39        		.uleb128 0x39
 1288 0161 0B        		.uleb128 0xb
 1289 0162 27        		.uleb128 0x27
 1290 0163 19        		.uleb128 0x19
 1291 0164 11        		.uleb128 0x11
 1292 0165 01        		.uleb128 0x1
 1293 0166 12        		.uleb128 0x12
 1294 0167 06        		.uleb128 0x6
 1295 0168 40        		.uleb128 0x40
 1296 0169 18        		.uleb128 0x18
 1297 016a 9742      		.uleb128 0x2117
 1298 016c 19        		.uleb128 0x19
 1299 016d 01        		.uleb128 0x1
 1300 016e 13        		.uleb128 0x13
 1301 016f 00        		.byte	0
 1302 0170 00        		.byte	0
 1303 0171 18        		.uleb128 0x18
 1304 0172 05        		.uleb128 0x5
 1305 0173 00        		.byte	0
 1306 0174 03        		.uleb128 0x3
 1307 0175 0E        		.uleb128 0xe
 1308 0176 3A        		.uleb128 0x3a
GAS LISTING C:\Users\casanovg\AppData\Local\Temp\ccAecxKz.s 			page 35


 1309 0177 0B        		.uleb128 0xb
 1310 0178 3B        		.uleb128 0x3b
 1311 0179 05        		.uleb128 0x5
 1312 017a 39        		.uleb128 0x39
 1313 017b 0B        		.uleb128 0xb
 1314 017c 49        		.uleb128 0x49
 1315 017d 13        		.uleb128 0x13
 1316 017e 02        		.uleb128 0x2
 1317 017f 17        		.uleb128 0x17
 1318 0180 B742      		.uleb128 0x2137
 1319 0182 17        		.uleb128 0x17
 1320 0183 00        		.byte	0
 1321 0184 00        		.byte	0
 1322 0185 19        		.uleb128 0x19
 1323 0186 2E        		.uleb128 0x2e
 1324 0187 00        		.byte	0
 1325 0188 3F        		.uleb128 0x3f
 1326 0189 19        		.uleb128 0x19
 1327 018a 03        		.uleb128 0x3
 1328 018b 0E        		.uleb128 0xe
 1329 018c 3A        		.uleb128 0x3a
 1330 018d 0B        		.uleb128 0xb
 1331 018e 3B        		.uleb128 0x3b
 1332 018f 05        		.uleb128 0x5
 1333 0190 39        		.uleb128 0x39
 1334 0191 0B        		.uleb128 0xb
 1335 0192 27        		.uleb128 0x27
 1336 0193 19        		.uleb128 0x19
 1337 0194 49        		.uleb128 0x49
 1338 0195 13        		.uleb128 0x13
 1339 0196 11        		.uleb128 0x11
 1340 0197 01        		.uleb128 0x1
 1341 0198 12        		.uleb128 0x12
 1342 0199 06        		.uleb128 0x6
 1343 019a 40        		.uleb128 0x40
 1344 019b 18        		.uleb128 0x18
 1345 019c 9742      		.uleb128 0x2117
 1346 019e 19        		.uleb128 0x19
 1347 019f 00        		.byte	0
 1348 01a0 00        		.byte	0
 1349 01a1 1A        		.uleb128 0x1a
 1350 01a2 2E        		.uleb128 0x2e
 1351 01a3 00        		.byte	0
 1352 01a4 03        		.uleb128 0x3
 1353 01a5 0E        		.uleb128 0xe
 1354 01a6 3A        		.uleb128 0x3a
 1355 01a7 0B        		.uleb128 0xb
 1356 01a8 3B        		.uleb128 0x3b
 1357 01a9 05        		.uleb128 0x5
 1358 01aa 39        		.uleb128 0x39
 1359 01ab 0B        		.uleb128 0xb
 1360 01ac 27        		.uleb128 0x27
 1361 01ad 19        		.uleb128 0x19
 1362 01ae 20        		.uleb128 0x20
 1363 01af 0B        		.uleb128 0xb
 1364 01b0 00        		.byte	0
 1365 01b1 00        		.byte	0
GAS LISTING C:\Users\casanovg\AppData\Local\Temp\ccAecxKz.s 			page 36


 1366 01b2 1B        		.uleb128 0x1b
 1367 01b3 2E        		.uleb128 0x2e
 1368 01b4 00        		.byte	0
 1369 01b5 31        		.uleb128 0x31
 1370 01b6 13        		.uleb128 0x13
 1371 01b7 11        		.uleb128 0x11
 1372 01b8 01        		.uleb128 0x1
 1373 01b9 12        		.uleb128 0x12
 1374 01ba 06        		.uleb128 0x6
 1375 01bb 40        		.uleb128 0x40
 1376 01bc 18        		.uleb128 0x18
 1377 01bd 9742      		.uleb128 0x2117
 1378 01bf 19        		.uleb128 0x19
 1379 01c0 00        		.byte	0
 1380 01c1 00        		.byte	0
 1381 01c2 00        		.byte	0
 1382               		.section	.debug_loc,"",@progbits
 1383               	.Ldebug_loc0:
 1384               	.LVUS2:
 1385 0000 00        		.uleb128 .LVU59
 1386 0001 00        		.uleb128 0
 1387               	.LLST2:
 1388 0002 0000 0000 		.long	.LVL5
 1389 0006 0000 0000 		.long	.LFE4
 1390 000a 0200      		.word	0x2
 1391 000c 8E        		.byte	0x8e
 1392 000d 00        		.sleb128 0
 1393 000e 0000 0000 		.long	0
 1394 0012 0000 0000 		.long	0
 1395               	.LVUS1:
 1396 0016 01        		.uleb128 .LVU36
 1397 0017 00        		.uleb128 .LVU45
 1398 0018 00        		.uleb128 .LVU45
 1399 0019 00        		.uleb128 0
 1400               	.LLST1:
 1401 001a 0000 0000 		.long	.LVL3
 1402 001e 0000 0000 		.long	.LVL4
 1403 0022 0100      		.word	0x1
 1404 0024 68        		.byte	0x68
 1405 0025 0000 0000 		.long	.LVL4
 1406 0029 0000 0000 		.long	.LFE3
 1407 002d 0200      		.word	0x2
 1408 002f 8E        		.byte	0x8e
 1409 0030 00        		.sleb128 0
 1410 0031 0000 0000 		.long	0
 1411 0035 0000 0000 		.long	0
 1412               	.LVUS0:
 1413 0039 00        		.uleb128 0
 1414 003a 00        		.uleb128 .LVU19
 1415 003b 00        		.uleb128 .LVU19
 1416 003c 00        		.uleb128 .LVU20
 1417 003d 00        		.uleb128 .LVU20
 1418 003e 00        		.uleb128 0
 1419               	.LLST0:
 1420 003f 0000 0000 		.long	.LVL0
 1421 0043 0000 0000 		.long	.LVL1
 1422 0047 0100      		.word	0x1
GAS LISTING C:\Users\casanovg\AppData\Local\Temp\ccAecxKz.s 			page 37


 1423 0049 68        		.byte	0x68
 1424 004a 0000 0000 		.long	.LVL1
 1425 004e 0000 0000 		.long	.LVL2
 1426 0052 0500      		.word	0x5
 1427 0054 03        		.byte	0x3
 1428 0055 0000 0000 		.long	slaveAddress
 1429 0059 0000 0000 		.long	.LVL2
 1430 005d 0000 0000 		.long	.LFE1
 1431 0061 0400      		.word	0x4
 1432 0063 F3        		.byte	0xf3
 1433 0064 01        		.uleb128 0x1
 1434 0065 68        		.byte	0x68
 1435 0066 9F        		.byte	0x9f
 1436 0067 0000 0000 		.long	0
 1437 006b 0000 0000 		.long	0
 1438               		.section	.debug_aranges,"",@progbits
 1439 0000 4C00 0000 		.long	0x4c
 1440 0004 0200      		.word	0x2
 1441 0006 0000 0000 		.long	.Ldebug_info0
 1442 000a 04        		.byte	0x4
 1443 000b 00        		.byte	0
 1444 000c 0000      		.word	0
 1445 000e 0000      		.word	0
 1446 0010 0000 0000 		.long	.LFB1
 1447 0014 3200 0000 		.long	.LFE1-.LFB1
 1448 0018 0000 0000 		.long	.LFB2
 1449 001c 0E00 0000 		.long	.LFE2-.LFB2
 1450 0020 0000 0000 		.long	.LFB3
 1451 0024 2C00 0000 		.long	.LFE3-.LFB3
 1452 0028 0000 0000 		.long	.LFB4
 1453 002c 2C00 0000 		.long	.LFE4-.LFB4
 1454 0030 0000 0000 		.long	.LFB5
 1455 0034 0600 0000 		.long	.LFE5-.LFB5
 1456 0038 0000 0000 		.long	.LFB6
 1457 003c 2200 0000 		.long	.LFE6-.LFB6
 1458 0040 0000 0000 		.long	.LFB7
 1459 0044 1001 0000 		.long	.LFE7-.LFB7
 1460 0048 0000 0000 		.long	0
 1461 004c 0000 0000 		.long	0
 1462               		.section	.debug_ranges,"",@progbits
 1463               	.Ldebug_ranges0:
 1464 0000 0000 0000 		.long	.LFB1
 1465 0004 0000 0000 		.long	.LFE1
 1466 0008 0000 0000 		.long	.LFB2
 1467 000c 0000 0000 		.long	.LFE2
 1468 0010 0000 0000 		.long	.LFB3
 1469 0014 0000 0000 		.long	.LFE3
 1470 0018 0000 0000 		.long	.LFB4
 1471 001c 0000 0000 		.long	.LFE4
 1472 0020 0000 0000 		.long	.LFB5
 1473 0024 0000 0000 		.long	.LFE5
 1474 0028 0000 0000 		.long	.LFB6
 1475 002c 0000 0000 		.long	.LFE6
 1476 0030 0000 0000 		.long	.LFB7
 1477 0034 0000 0000 		.long	.LFE7
 1478 0038 0000 0000 		.long	0
 1479 003c 0000 0000 		.long	0
GAS LISTING C:\Users\casanovg\AppData\Local\Temp\ccAecxKz.s 			page 38


 1480               		.section	.debug_line,"",@progbits
 1481               	.Ldebug_line0:
 1482 0000 3007 0000 		.section	.debug_str,"MS",@progbits,1
 1482      0200 8500 
 1482      0000 0201 
 1482      FB0E 0D00 
 1482      0101 0101 
 1483               	.LASF35:
 1484 0000 6E69 6365 		.string	"nicebots-libs/twis/6-GC-if-2/nb-usitwisl-if2.c"
 1484      626F 7473 
 1484      2D6C 6962 
 1484      732F 7477 
 1484      6973 2F36 
 1485               	.LASF9:
 1486 002f 5553 495F 		.string	"USI_SLAVE_CHECK_ADDRESS"
 1486      534C 4156 
 1486      455F 4348 
 1486      4543 4B5F 
 1486      4144 4452 
 1487               	.LASF11:
 1488 0047 5553 495F 		.string	"USI_SLAVE_REQUEST_REPLY_FROM_SEND_DATA"
 1488      534C 4156 
 1488      455F 5245 
 1488      5155 4553 
 1488      545F 5245 
 1489               	.LASF18:
 1490 006e 6F76 6572 		.string	"overflowState"
 1490      666C 6F77 
 1490      5374 6174 
 1490      6500 
 1491               	.LASF7:
 1492 007c 5573 695F 		.string	"Usi_onRequestPtr"
 1492      6F6E 5265 
 1492      7175 6573 
 1492      7450 7472 
 1492      00
 1493               	.LASF17:
 1494 008d 736C 6176 		.string	"slaveAddress"
 1494      6541 6464 
 1494      7265 7373 
 1494      00
 1495               	.LASF39:
 1496 009a 5573 6954 		.string	"UsiTwiReceiveByte"
 1496      7769 5265 
 1496      6365 6976 
 1496      6542 7974 
 1496      6500 
 1497               	.LASF32:
 1498 00ac 6461 7461 		.string	"data"
 1498      00
 1499               	.LASF37:
 1500 00b1 5573 6953 		.string	"UsiStartHandler"
 1500      7461 7274 
 1500      4861 6E64 
 1500      6C65 7200 
 1501               	.LASF1:
 1502 00c1 756E 7369 		.string	"unsigned char"
GAS LISTING C:\Users\casanovg\AppData\Local\Temp\ccAecxKz.s 			page 39


 1502      676E 6564 
 1502      2063 6861 
 1502      7200 
 1503               	.LASF4:
 1504 00cf 6C6F 6E67 		.string	"long unsigned int"
 1504      2075 6E73 
 1504      6967 6E65 
 1504      6420 696E 
 1504      7400 
 1505               	.LASF28:
 1506 00e1 5573 694F 		.string	"UsiOverflowHandler"
 1506      7665 7266 
 1506      6C6F 7748 
 1506      616E 646C 
 1506      6572 00
 1507               	.LASF20:
 1508 00f4 7278 4865 		.string	"rxHead"
 1508      6164 00
 1509               	.LASF19:
 1510 00fb 7278 4275 		.string	"rxBuf"
 1510      6600 
 1511               	.LASF22:
 1512 0101 7278 436F 		.string	"rxCount"
 1512      756E 7400 
 1513               	.LASF31:
 1514 0109 5573 6954 		.string	"UsiTwiSlaveInit"
 1514      7769 536C 
 1514      6176 6549 
 1514      6E69 7400 
 1515               	.LASF2:
 1516 0119 756E 7369 		.string	"unsigned int"
 1516      676E 6564 
 1516      2069 6E74 
 1516      00
 1517               	.LASF33:
 1518 0126 6F77 6E41 		.string	"ownAddress"
 1518      6464 7265 
 1518      7373 00
 1519               	.LASF38:
 1520 0131 5573 6954 		.string	"UsiTwiAmountDataInReceiveBuffer"
 1520      7769 416D 
 1520      6F75 6E74 
 1520      4461 7461 
 1520      496E 5265 
 1521               	.LASF6:
 1522 0151 6C6F 6E67 		.string	"long long unsigned int"
 1522      206C 6F6E 
 1522      6720 756E 
 1522      7369 676E 
 1522      6564 2069 
 1523               	.LASF15:
 1524 0168 7569 6E74 		.string	"uint8_t"
 1524      385F 7400 
 1525               	.LASF14:
 1526 0170 5553 495F 		.string	"USI_SLAVE_GET_DATA_AND_SEND_ACK"
 1526      534C 4156 
 1526      455F 4745 
GAS LISTING C:\Users\casanovg\AppData\Local\Temp\ccAecxKz.s 			page 40


 1526      545F 4441 
 1526      5441 5F41 
 1527               	.LASF40:
 1528 0190 5573 6954 		.string	"UsiTwiDataInTransmitBuffer"
 1528      7769 4461 
 1528      7461 496E 
 1528      5472 616E 
 1528      736D 6974 
 1529               	.LASF16:
 1530 01ab 6F76 6572 		.string	"overflowState_t"
 1530      666C 6F77 
 1530      5374 6174 
 1530      655F 7400 
 1531               	.LASF8:
 1532 01bb 5573 695F 		.string	"Usi_onReceivePtr"
 1532      6F6E 5265 
 1532      6365 6976 
 1532      6550 7472 
 1532      00
 1533               	.LASF13:
 1534 01cc 5553 495F 		.string	"USI_SLAVE_REQUEST_DATA"
 1534      534C 4156 
 1534      455F 5245 
 1534      5155 4553 
 1534      545F 4441 
 1535               	.LASF26:
 1536 01e3 7478 436F 		.string	"txCount"
 1536      756E 7400 
 1537               	.LASF5:
 1538 01eb 6C6F 6E67 		.string	"long long int"
 1538      206C 6F6E 
 1538      6720 696E 
 1538      7400 
 1539               	.LASF36:
 1540 01f9 433A 5C55 		.string	"C:\\Users\\casanovg\\source\\Repos\\timonel\\porcellanato"
 1540      7365 7273 
 1540      5C63 6173 
 1540      616E 6F76 
 1540      675C 736F 
 1541               	.LASF29:
 1542 022d 5573 6954 		.string	"UsiTwiTransmitByte"
 1542      7769 5472 
 1542      616E 736D 
 1542      6974 4279 
 1542      7465 00
 1543               	.LASF34:
 1544 0240 474E 5520 		.string	"GNU C99 8.2.0 -mn-flash=1 -mno-skip-bug -mmcu=avr25 -g2 -Os -std=gnu99 -funsigned-char -f
 1544      4339 3920 
 1544      382E 322E 
 1544      3020 2D6D 
 1544      6E2D 666C 
 1545               	.LASF10:
 1546 0337 5553 495F 		.string	"USI_SLAVE_SEND_DATA"
 1546      534C 4156 
 1546      455F 5345 
 1546      4E44 5F44 
 1546      4154 4100 
GAS LISTING C:\Users\casanovg\AppData\Local\Temp\ccAecxKz.s 			page 41


 1547               	.LASF21:
 1548 034b 7278 5461 		.string	"rxTail"
 1548      696C 00
 1549               	.LASF25:
 1550 0352 7478 5461 		.string	"txTail"
 1550      696C 00
 1551               	.LASF24:
 1552 0359 7478 4865 		.string	"txHead"
 1552      6164 00
 1553               	.LASF27:
 1554 0360 7274 6E5F 		.string	"rtn_byte"
 1554      6279 7465 
 1554      00
 1555               	.LASF3:
 1556 0369 6C6F 6E67 		.string	"long int"
 1556      2069 6E74 
 1556      00
 1557               	.LASF0:
 1558 0372 7369 676E 		.string	"signed char"
 1558      6564 2063 
 1558      6861 7200 
 1559               	.LASF12:
 1560 037e 5553 495F 		.string	"USI_SLAVE_CHECK_REPLY_FROM_SEND_DATA"
 1560      534C 4156 
 1560      455F 4348 
 1560      4543 4B5F 
 1560      5245 504C 
 1561               	.LASF30:
 1562 03a3 5F42 6F6F 		.string	"_Bool"
 1562      6C00 
 1563               	.LASF23:
 1564 03a9 7478 4275 		.string	"txBuf"
 1564      6600 
 1565               	.LASF41:
 1566 03af 466C 7573 		.string	"FlushTwiBuffers"
 1566      6854 7769 
 1566      4275 6666 
 1566      6572 7300 
 1567               		.ident	"GCC: (GNU) 8.2.0"
 1568               	.global __do_clear_bss
GAS LISTING C:\Users\casanovg\AppData\Local\Temp\ccAecxKz.s 			page 42


DEFINED SYMBOLS
                            *ABS*:0000000000000000 nb-usitwisl-if2.c
C:\Users\casanovg\AppData\Local\Temp\ccAecxKz.s:2      *ABS*:000000000000003e __SP_H__
C:\Users\casanovg\AppData\Local\Temp\ccAecxKz.s:3      *ABS*:000000000000003d __SP_L__
C:\Users\casanovg\AppData\Local\Temp\ccAecxKz.s:4      *ABS*:000000000000003f __SREG__
C:\Users\casanovg\AppData\Local\Temp\ccAecxKz.s:5      *ABS*:0000000000000000 __tmp_reg__
C:\Users\casanovg\AppData\Local\Temp\ccAecxKz.s:6      *ABS*:0000000000000001 __zero_reg__
C:\Users\casanovg\AppData\Local\Temp\ccAecxKz.s:13     .text.UsiTwiSlaveInit:0000000000000000 UsiTwiSlaveInit
C:\Users\casanovg\AppData\Local\Temp\ccAecxKz.s:555    .bss.rxTail:0000000000000000 rxTail
C:\Users\casanovg\AppData\Local\Temp\ccAecxKz.s:560    .bss.rxHead:0000000000000000 rxHead
C:\Users\casanovg\AppData\Local\Temp\ccAecxKz.s:550    .bss.rxCount:0000000000000000 rxCount
C:\Users\casanovg\AppData\Local\Temp\ccAecxKz.s:535    .bss.txTail:0000000000000000 txTail
C:\Users\casanovg\AppData\Local\Temp\ccAecxKz.s:540    .bss.txHead:0000000000000000 txHead
C:\Users\casanovg\AppData\Local\Temp\ccAecxKz.s:530    .bss.txCount:0000000000000000 txCount
C:\Users\casanovg\AppData\Local\Temp\ccAecxKz.s:575    .bss.slaveAddress:0000000000000000 slaveAddress
C:\Users\casanovg\AppData\Local\Temp\ccAecxKz.s:85     .text.UsiTwiDataInTransmitBuffer:0000000000000000 UsiTwiDataInTransmitBuffer
C:\Users\casanovg\AppData\Local\Temp\ccAecxKz.s:110    .text.UsiTwiTransmitByte:0000000000000000 UsiTwiTransmitByte
C:\Users\casanovg\AppData\Local\Temp\ccAecxKz.s:545    .bss.txBuf:0000000000000000 txBuf
C:\Users\casanovg\AppData\Local\Temp\ccAecxKz.s:159    .text.UsiTwiReceiveByte:0000000000000000 UsiTwiReceiveByte
C:\Users\casanovg\AppData\Local\Temp\ccAecxKz.s:565    .bss.rxBuf:0000000000000000 rxBuf
C:\Users\casanovg\AppData\Local\Temp\ccAecxKz.s:208    .text.UsiTwiAmountDataInReceiveBuffer:0000000000000000 UsiTwiAmountDataInReceiveBuffer
C:\Users\casanovg\AppData\Local\Temp\ccAecxKz.s:228    .text.UsiStartHandler:0000000000000000 UsiStartHandler
C:\Users\casanovg\AppData\Local\Temp\ccAecxKz.s:570    .bss.overflowState:0000000000000000 overflowState
C:\Users\casanovg\AppData\Local\Temp\ccAecxKz.s:283    .text.UsiOverflowHandler:0000000000000000 UsiOverflowHandler
                            *COM*:0000000000000002 Usi_onReceivePtr
                            *COM*:0000000000000002 Usi_onRequestPtr

UNDEFINED SYMBOLS
__do_clear_bss
